Certificate:
    Data:
        Version: 3 (0x2)
        Serial Number: 1349127868 (0x506a0ebc)
    Signature Algorithm: sha1WithRSAEncryption
        Issuer: C = FR, ST = Unknown, L = Unknown, O = Unknown, OU = Unknown, CN = Emmanuel Bourg
        Validity
            Not Before: Oct  1 21:44:28 2012 GMT
            Not After : Sep 26 21:44:28 2032 GMT
        Subject: C = FR, ST = Unknown, L = Unknown, O = Unknown, OU = Unknown, CN = Emmanuel Bourg
        Subject Public Key Info:
            Public Key Algorithm: rsaEncryption
                Public-Key: (1024 bit)
                Modulus:
                    00:9a:30:8a:0a:2b:91:e4:d3:12:85:a4:da:89:01:
                    f3:d4:df:b5:98:28:b2:75:03:91:ba:a8:76:62:6a:
                    ce:94:6f:a5:58:19:26:e0:67:92:8b:22:9a:bd:fb:
                    f5:3a:86:55:e3:24:61:01:ad:7f:58:e5:a0:7f:be:
                    c6:f7:72:6f:cc:57:da:bd:1b:f8:a5:a2:82:05:b0:
                    5b:38:26:9f:44:20:91:00:04:91:c5:3d:1a:68:d6:
                    26:77:9d:f0:21:3e:22:f5:16:50:c7:a6:17:53:90:
                    09:b0:37:50:8f:ce:5e:e9:a3:25:7b:a8:08:77:e7:
                    5e:d3:35:b8:91:8f:23:16:ed
                Exponent: 65537 (0x10001)
    Signature Algorithm: sha1WithRSAEncryption
         40:f4:de:92:e5:9e:bd:f4:2e:fa:7b:8a:37:2c:48:16:0c:83:
         c1:d1:31:e1:78:33:58:ff:19:1d:aa:6f:1a:1b:b6:ca:42:93:
         73:b0:f4:7c:ef:bb:ba:30:38:23:2a:31:8b:bc:d4:20:54:0d:
         c1:26:87:ce:c2:6e:02:d5:1d:b0:82:61:12:c7:d1:16:e7:b3:
         8f:00:5b:8c:9d:b5:61:68:a5:d7:00:66:18:6d:8e:77:0f:bf:
         35:7d:48:ff:0c:1e:a1:4e:e6:ad:f3:2e:e2:c6:36:1b:72:2a:
         4f:a2:63:11:b3:d3:19:9f:01:9e:10:67:83:b1:77:8a:b5:fb:
         f9:a8
-----BEGIN CERTIFICATE-----
MIICUzCCAbygAwIBAgIEUGoOvDANBgkqhkiG9w0BAQUFADBuMQswCQYDVQQGEwJG
UjEQMA4GA1UECBMHVW5rbm93bjEQMA4GA1UEBxMHVW5rbm93bjEQMA4GA1UEChMH
VW5rbm93bjEQMA4GA1UECxMHVW5rbm93bjEXMBUGA1UEAxMORW1tYW51ZWwgQm91
cmcwHhcNMTIxMDAxMjE0NDI4WhcNMzIwOTI2MjE0NDI4WjBuMQswCQYDVQQGEwJG
UjEQMA4GA1UECBMHVW5rbm93bjEQMA4GA1UEBxMHVW5rbm93bjEQMA4GA1UEChMH
VW5rbm93bjEQMA4GA1UECxMHVW5rbm93bjEXMBUGA1UEAxMORW1tYW51ZWwgQm91
cmcwgZ8wDQYJKoZIhvcNAQEBBQADgY0AMIGJAoGBAJowigorkeTTEoWk2okB89Tf
tZgosnUDkbqodmJqzpRvpVgZJuBnkosimr379TqGVeMkYQGtf1jloH++xvdyb8xX
2r0b+KWiggWwWzgmn0QgkQAEkcU9GmjWJned8CE+IvUWUMemF1OQCbA3UI/OXumj
JXuoCHfnXtM1uJGPIxbtAgMBAAEwDQYJKoZIhvcNAQEFBQADgYEAQPTekuWevfQu
+nuKNyxIFgyDwdEx4XgzWP8ZHapvGhu2ykKTc7D0fO+7ujA4Iyoxi7zUIFQNwSaH
zsJuAtUdsIJhEsfRFuezjwBbjJ21YWil1wBmGG2Odw+/NX1I/wweoU7mrfMu4sY2
G3IqT6JjEbPTGZ8BnhBng7F3irX7+ag=
-----END CERTIFICATE-----
