Certificate:
    Data:
        Version: 3 (0x2)
        Serial Number:
            c9:9b:ee:7e:4b:f3:b6:d9
    Signature Algorithm: sha256WithRSAEncryption
        Issuer: CN = Jsign Root Certificate Authority
        Validity
            Not Before: Jun 15 19:55:56 2017 GMT
            Not After : Jun 10 19:55:56 2037 GMT
        Subject: CN = Jsign Root Certificate Authority
        Subject Public Key Info:
            Public Key Algorithm: rsaEncryption
                Public-Key: (2048 bit)
                Modulus:
                    00:d8:cd:73:94:17:9d:4e:3c:28:cf:d2:f3:38:63:
                    29:f4:f7:7d:54:fc:33:8a:17:17:bc:a2:04:16:36:
                    1a:c6:cc:1f:71:15:e1:e9:32:f5:7b:13:19:39:ed:
                    27:ea:10:34:cb:3a:5c:dd:69:47:c4:7f:49:18:e4:
                    bd:34:8d:1a:41:c0:a8:91:97:00:15:b2:4e:88:75:
                    4f:5a:4a:b8:5e:f9:03:82:53:fa:64:13:8b:9c:5a:
                    74:ac:b3:42:8d:30:d0:83:0f:f8:5f:07:f9:c2:ca:
                    e9:fb:05:65:10:63:2e:31:64:80:6d:4d:b4:5f:38:
                    54:8d:ce:04:e1:84:dd:09:d9:02:4e:a8:c7:4c:bf:
                    83:89:f9:eb:15:06:42:47:67:2d:22:ff:b6:20:85:
                    a6:c2:35:f7:4e:45:56:d8:0b:da:0f:10:3b:ab:8d:
                    de:03:d2:9d:ce:67:63:1f:e5:f0:14:50:6d:40:3c:
                    eb:3d:0b:ba:9f:ab:77:08:78:ad:a9:75:26:67:47:
                    ae:34:f3:b7:1e:10:9c:0a:20:51:a8:c1:9f:00:b4:
                    d5:c5:42:e5:fc:9d:66:16:80:ca:e9:e9:63:57:e1:
                    d4:0c:ef:b2:0b:00:97:67:0e:10:53:cc:62:38:dc:
                    1c:9a:9a:a1:6e:5f:56:f0:45:34:3b:ae:09:cc:ec:
                    4d:bd
                Exponent: 65537 (0x10001)
        X509v3 extensions:
            X509v3 Subject Key Identifier: 
                66:7B:D4:F3:0B:60:F9:4A:9F:06:62:D2:40:A6:DD:90:B4:C9:DD:E2
            X509v3 Authority Key Identifier: 
                keyid:66:7B:D4:F3:0B:60:F9:4A:9F:06:62:D2:40:A6:DD:90:B4:C9:DD:E2

            X509v3 Basic Constraints: critical
                CA:TRUE
    Signature Algorithm: sha256WithRSAEncryption
         c5:ce:e7:3f:f3:74:94:74:85:17:1e:91:54:05:c5:8b:e5:c8:
         2b:0f:51:af:9c:5a:86:19:bb:0b:3e:63:8e:e9:f9:47:8a:31:
         c9:25:fd:18:46:88:b6:b1:f2:be:29:88:81:07:1a:e1:3a:13:
         bf:2c:a8:8a:46:c5:bb:41:fa:a4:f4:a7:d5:ee:e6:2a:81:08:
         45:46:61:28:00:49:67:f7:aa:80:49:2e:7f:b3:fd:2f:b2:18:
         90:48:b8:b6:fc:68:22:f0:d2:60:45:66:cf:54:9e:70:ba:cb:
         10:14:b7:bc:10:85:00:ca:04:ec:5a:92:7e:39:fa:1f:08:c4:
         09:56:64:07:01:7d:fd:e4:b6:3a:28:22:d3:7a:f3:3a:13:9c:
         4a:fb:04:fb:cd:de:b5:93:d2:42:4c:c2:ff:cc:cd:35:03:18:
         ed:ca:e4:d6:7d:93:7c:10:70:0b:ce:30:ea:a3:78:c9:e2:00:
         84:a6:f7:52:19:7e:da:8a:5e:02:b2:26:06:d7:7a:c2:e1:14:
         51:69:92:8b:4c:17:f7:b7:a2:0b:80:13:11:c9:40:2f:1f:60:
         ee:57:ae:95:62:f0:0d:31:70:90:a1:72:50:b3:ab:6d:95:46:
         75:b3:31:4f:bb:e6:97:64:81:69:12:08:bb:de:0a:98:84:b7:
         bb:27:8e:a8
-----BEGIN CERTIFICATE-----
MIIDLDCCAhSgAwIBAgIJAMmb7n5L87bZMA0GCSqGSIb3DQEBCwUAMCsxKTAnBgNV
BAMMIEpzaWduIFJvb3QgQ2VydGlmaWNhdGUgQXV0aG9yaXR5MB4XDTE3MDYxNTE5
NTU1NloXDTM3MDYxMDE5NTU1NlowKzEpMCcGA1UEAwwgSnNpZ24gUm9vdCBDZXJ0
aWZpY2F0ZSBBdXRob3JpdHkwggEiMA0GCSqGSIb3DQEBAQUAA4IBDwAwggEKAoIB
AQDYzXOUF51OPCjP0vM4Yyn0931U/DOKFxe8ogQWNhrGzB9xFeHpMvV7Exk57Sfq
EDTLOlzdaUfEf0kY5L00jRpBwKiRlwAVsk6IdU9aSrhe+QOCU/pkE4ucWnSss0KN
MNCDD/hfB/nCyun7BWUQYy4xZIBtTbRfOFSNzgThhN0J2QJOqMdMv4OJ+esVBkJH
Zy0i/7YghabCNfdORVbYC9oPEDurjd4D0p3OZ2Mf5fAUUG1APOs9C7qfq3cIeK2p
dSZnR64087ceEJwKIFGowZ8AtNXFQuX8nWYWgMrp6WNX4dQM77ILAJdnDhBTzGI4
3ByamqFuX1bwRTQ7rgnM7E29AgMBAAGjUzBRMB0GA1UdDgQWBBRme9TzC2D5Sp8G
YtJApt2QtMnd4jAfBgNVHSMEGDAWgBRme9TzC2D5Sp8GYtJApt2QtMnd4jAPBgNV
HRMBAf8EBTADAQH/MA0GCSqGSIb3DQEBCwUAA4IBAQDFzuc/83SUdIUXHpFUBcWL
5cgrD1GvnFqGGbsLPmOO6flHijHJJf0YRoi2sfK+KYiBBxrhOhO/LKiKRsW7Qfqk
9KfV7uYqgQhFRmEoAEln96qASS5/s/0vshiQSLi2/Ggi8NJgRWbPVJ5wussQFLe8
EIUAygTsWpJ+OfofCMQJVmQHAX395LY6KCLTevM6E5xK+wT7zd61k9JCTML/zM01
AxjtyuTWfZN8EHALzjDqo3jJ4gCEpvdSGX7ail4CsiYG13rC4RRRaZKLTBf3t6IL
gBMRyUAvH2DuV66VYvANMXCQoXJQs6ttlUZ1szFPu+aXZIFpEgi73gqYhLe7J46o
-----END CERTIFICATE-----
Certificate:
    Data:
        Version: 3 (0x2)
        Serial Number:
            99:f4:82:29:68:0c:42:59
    Signature Algorithm: sha256WithRSAEncryption
        Issuer: CN = Jsign Root Certificate Authority
        Validity
            Not Before: Jun 15 19:55:56 2017 GMT
            Not After : Jun 10 19:55:56 2037 GMT
        Subject: CN = Jsign Code Signing CA
        Subject Public Key Info:
            Public Key Algorithm: rsaEncryption
                Public-Key: (2048 bit)
                Modulus:
                    00:b7:56:99:69:a8:f6:cd:d1:92:6b:45:72:69:77:
                    c6:21:21:90:8a:c9:fe:3b:89:06:c6:cb:d0:09:de:
                    56:9e:f1:aa:10:4b:69:c8:4e:7a:8c:4e:2f:81:68:
                    31:22:dc:27:ab:28:fc:69:06:a6:ea:fb:f9:0e:93:
                    9b:9b:9a:0c:ff:0c:ae:1d:cf:ef:26:8e:7e:d4:2e:
                    73:ac:7d:0c:9f:3a:12:a6:1a:f8:ae:b6:14:88:04:
                    d7:2f:b2:04:2f:78:8c:f2:8f:e8:21:20:12:89:e9:
                    cc:4c:40:cc:16:9e:53:f7:33:d3:f4:8a:51:c0:6b:
                    15:8a:64:29:6d:a0:99:fb:df:21:8f:cc:76:8b:4d:
                    80:9d:1c:a2:38:a9:82:01:f1:2b:e5:d8:2f:e4:11:
                    db:cf:cd:ca:0b:0e:e7:92:b9:d9:e0:47:60:2b:68:
                    62:1d:55:84:ab:c4:7e:56:ce:42:c9:c3:0d:81:7a:
                    88:f5:72:28:7b:60:ff:6a:72:0e:e7:4e:f5:7d:0d:
                    f6:d1:39:1a:c7:fc:9c:eb:00:30:37:8f:98:f0:df:
                    47:23:c0:fa:a3:19:15:10:65:b3:81:f3:87:0e:9d:
                    04:32:27:8f:3a:a0:24:62:6d:a8:f5:c2:74:66:59:
                    a8:fc:1a:2c:6f:db:01:9b:7c:5f:70:14:3c:c9:bd:
                    1d:81
                Exponent: 65537 (0x10001)
        X509v3 extensions:
            X509v3 Basic Constraints: 
                CA:TRUE, pathlen:0
            X509v3 Key Usage: 
                Certificate Sign, CRL Sign
            X509v3 Extended Key Usage: 
                Code Signing
            X509v3 Subject Key Identifier: 
                16:A2:06:71:91:A8:D4:28:44:97:1F:95:E7:1A:5F:8C:9B:BE:2B:E0
            X509v3 Authority Key Identifier: 
                keyid:66:7B:D4:F3:0B:60:F9:4A:9F:06:62:D2:40:A6:DD:90:B4:C9:DD:E2

    Signature Algorithm: sha256WithRSAEncryption
         46:73:4d:83:09:28:ca:40:cb:aa:e8:a8:b2:78:a4:e5:b4:3a:
         99:60:8d:b6:6e:2e:8b:14:5a:62:d6:b1:20:38:14:4d:f8:52:
         52:bd:15:5d:a5:a0:2b:9a:b1:22:83:94:c8:1a:f2:b7:1f:34:
         b4:7e:4c:96:34:d0:9f:7e:cc:8c:92:58:58:11:6e:7c:f6:30:
         73:37:7a:91:60:92:cc:5b:91:71:66:f4:85:fb:19:cf:1e:21:
         17:a4:0d:f0:10:c2:de:1b:86:f6:32:0c:5d:28:7b:67:ae:8d:
         89:eb:56:15:28:fb:a4:47:2c:22:90:60:cb:6a:2a:26:2c:bf:
         34:87:46:a7:52:a3:79:c0:74:9e:e5:4b:3a:05:1f:43:77:4f:
         a2:99:c8:fa:31:e4:0e:e4:58:db:6c:f0:4c:89:72:5f:89:36:
         d1:90:4b:44:a3:6b:44:d6:fa:d7:50:30:b6:d3:43:cd:6a:c9:
         2e:49:71:b3:69:3b:a3:a8:42:05:81:3c:67:8c:c9:fb:e6:f2:
         53:11:9c:35:72:f7:5a:e4:ef:87:b3:6d:c3:b2:7a:c2:10:ac:
         05:bc:e5:66:15:0f:3c:98:1f:94:ea:21:74:e0:e7:10:cd:af:
         cd:40:c0:02:2d:41:be:60:95:69:13:46:09:a8:64:62:18:5b:
         fd:ba:0a:f1
-----BEGIN CERTIFICATE-----
MIIDQzCCAiugAwIBAgIJAJn0giloDEJZMA0GCSqGSIb3DQEBCwUAMCsxKTAnBgNV
BAMMIEpzaWduIFJvb3QgQ2VydGlmaWNhdGUgQXV0aG9yaXR5MB4XDTE3MDYxNTE5
NTU1NloXDTM3MDYxMDE5NTU1NlowIDEeMBwGA1UEAwwVSnNpZ24gQ29kZSBTaWdu
aW5nIENBMIIBIjANBgkqhkiG9w0BAQEFAAOCAQ8AMIIBCgKCAQEAt1aZaaj2zdGS
a0VyaXfGISGQisn+O4kGxsvQCd5WnvGqEEtpyE56jE4vgWgxItwnqyj8aQam6vv5
DpObm5oM/wyuHc/vJo5+1C5zrH0MnzoSphr4rrYUiATXL7IEL3iM8o/oISASienM
TEDMFp5T9zPT9IpRwGsVimQpbaCZ+98hj8x2i02AnRyiOKmCAfEr5dgv5BHbz83K
Cw7nkrnZ4EdgK2hiHVWEq8R+Vs5CycMNgXqI9XIoe2D/anIO5071fQ320Tkax/yc
6wAwN4+Y8N9HI8D6oxkVEGWzgfOHDp0EMiePOqAkYm2o9cJ0Zlmo/Bosb9sBm3xf
cBQ8yb0dgQIDAQABo3UwczAPBgNVHRMECDAGAQH/AgEAMAsGA1UdDwQEAwIBBjAT
BgNVHSUEDDAKBggrBgEFBQcDAzAdBgNVHQ4EFgQUFqIGcZGo1ChElx+V5xpfjJu+
K+AwHwYDVR0jBBgwFoAUZnvU8wtg+UqfBmLSQKbdkLTJ3eIwDQYJKoZIhvcNAQEL
BQADggEBAEZzTYMJKMpAy6roqLJ4pOW0OplgjbZuLosUWmLWsSA4FE34UlK9FV2l
oCuasSKDlMga8rcfNLR+TJY00J9+zIySWFgRbnz2MHM3epFgksxbkXFm9IX7Gc8e
IRekDfAQwt4bhvYyDF0oe2eujYnrVhUo+6RHLCKQYMtqKiYsvzSHRqdSo3nAdJ7l
SzoFH0N3T6KZyPox5A7kWNts8EyJcl+JNtGQS0Sja0TW+tdQMLbTQ81qyS5JcbNp
O6OoQgWBPGeMyfvm8lMRnDVy91rk74ezbcOyesIQrAW85WYVDzyYH5TqIXTg5xDN
r81AwAItQb5glWkTRgmoZGIYW/26CvE=
-----END CERTIFICATE-----
Certificate:
    Data:
        Version: 3 (0x2)
        Serial Number:
            ff:4e:67:16:a6:ae:67:10
    Signature Algorithm: sha256WithRSAEncryption
        Issuer: CN = Jsign Code Signing CA
        Validity
            Not Before: Jun 15 19:55:56 2017 GMT
            Not After : Jun 10 19:55:56 2037 GMT
        Subject: CN = Jsign Code Signing Test Certificate
        Subject Public Key Info:
            Public Key Algorithm: rsaEncryption
                Public-Key: (1024 bit)
                Modulus:
                    00:9a:30:8a:0a:2b:91:e4:d3:12:85:a4:da:89:01:
                    f3:d4:df:b5:98:28:b2:75:03:91:ba:a8:76:62:6a:
                    ce:94:6f:a5:58:19:26:e0:67:92:8b:22:9a:bd:fb:
                    f5:3a:86:55:e3:24:61:01:ad:7f:58:e5:a0:7f:be:
                    c6:f7:72:6f:cc:57:da:bd:1b:f8:a5:a2:82:05:b0:
                    5b:38:26:9f:44:20:91:00:04:91:c5:3d:1a:68:d6:
                    26:77:9d:f0:21:3e:22:f5:16:50:c7:a6:17:53:90:
                    09:b0:37:50:8f:ce:5e:e9:a3:25:7b:a8:08:77:e7:
                    5e:d3:35:b8:91:8f:23:16:ed
                Exponent: 65537 (0x10001)
        X509v3 extensions:
            X509v3 Basic Constraints: 
                CA:FALSE
            X509v3 Key Usage: 
                Digital Signature
            X509v3 Extended Key Usage: 
                Code Signing
            X509v3 Subject Key Identifier: 
                29:EF:5F:1C:9C:66:0A:23:0B:D4:14:60:75:CC:ED:D1:C5:75:E9:1D
            X509v3 Authority Key Identifier: 
                keyid:16:A2:06:71:91:A8:D4:28:44:97:1F:95:E7:1A:5F:8C:9B:BE:2B:E0

    Signature Algorithm: sha256WithRSAEncryption
         88:cd:45:59:f1:76:7f:10:91:44:b0:14:e3:62:21:d1:16:f8:
         3b:ee:a5:b7:22:4b:33:03:6e:3b:d5:51:37:b2:29:5f:76:89:
         b3:a9:04:e7:ea:c6:e0:58:bb:69:72:93:b6:69:00:45:75:68:
         d6:99:1b:d0:bf:d8:63:ce:1e:85:32:cf:a2:53:1e:6d:e6:65:
         e9:9a:5a:04:37:95:82:40:e4:12:03:c2:be:69:ab:2c:60:f3:
         66:e9:1f:0d:85:cd:ca:83:96:35:a5:9a:47:ab:96:3f:a8:ac:
         ea:67:ee:3f:eb:ab:dc:0e:5d:63:50:6d:7d:9a:8e:ab:29:79:
         bc:90:9d:8c:8c:fd:5c:45:c8:47:59:e1:76:6c:c0:93:52:60:
         54:ef:45:2c:1b:c6:35:eb:47:e8:9c:c0:90:89:c8:19:37:83:
         e0:3e:d9:35:d6:60:85:a7:02:c7:17:4c:2b:db:7b:0a:65:51:
         c2:fe:bd:ad:f8:9d:6d:c9:c0:c5:a6:76:27:3f:7e:4c:53:8a:
         fd:5e:1e:57:8a:30:13:e7:50:08:ee:2f:65:3f:81:e3:db:87:
         a9:91:a9:bd:45:63:b0:47:c0:e2:43:a3:2b:97:2d:73:f9:e0:
         9e:ea:1e:d2:6e:fe:d7:e6:07:ee:90:cd:21:13:86:0c:3b:5b:
         0a:33:01:19
-----BEGIN CERTIFICATE-----
MIICvDCCAaSgAwIBAgIJAP9OZxamrmcQMA0GCSqGSIb3DQEBCwUAMCAxHjAcBgNV
BAMMFUpzaWduIENvZGUgU2lnbmluZyBDQTAeFw0xNzA2MTUxOTU1NTZaFw0zNzA2
MTAxOTU1NTZaMC4xLDAqBgNVBAMMI0pzaWduIENvZGUgU2lnbmluZyBUZXN0IENl
cnRpZmljYXRlMIGfMA0GCSqGSIb3DQEBAQUAA4GNADCBiQKBgQCaMIoKK5Hk0xKF
pNqJAfPU37WYKLJ1A5G6qHZias6Ub6VYGSbgZ5KLIpq9+/U6hlXjJGEBrX9Y5aB/
vsb3cm/MV9q9G/ilooIFsFs4Jp9EIJEABJHFPRpo1iZ3nfAhPiL1FlDHphdTkAmw
N1CPzl7poyV7qAh3517TNbiRjyMW7QIDAQABo28wbTAJBgNVHRMEAjAAMAsGA1Ud
DwQEAwIHgDATBgNVHSUEDDAKBggrBgEFBQcDAzAdBgNVHQ4EFgQUKe9fHJxmCiML
1BRgdczt0cV16R0wHwYDVR0jBBgwFoAUFqIGcZGo1ChElx+V5xpfjJu+K+AwDQYJ
KoZIhvcNAQELBQADggEBAIjNRVnxdn8QkUSwFONiIdEW+DvupbciSzMDbjvVUTey
KV92ibOpBOfqxuBYu2lyk7ZpAEV1aNaZG9C/2GPOHoUyz6JTHm3mZemaWgQ3lYJA
5BIDwr5pqyxg82bpHw2FzcqDljWlmkerlj+orOpn7j/rq9wOXWNQbX2ajqspebyQ
nYyM/VxFyEdZ4XZswJNSYFTvRSwbxjXrR+icwJCJyBk3g+A+2TXWYIWnAscXTCvb
ewplUcL+va34nW3JwMWmdic/fkxTiv1eHleKMBPnUAjuL2U/gePbh6mRqb1FY7BH
wOJDoyuXLXP54J7qHtJu/tfmB+6QzSEThgw7WwozARk=
-----END CERTIFICATE-----
