Certificate:
    Data:
        Version: 3 (0x2)
        Serial Number:
            ff:4e:67:16:a6:ae:67:10
    Signature Algorithm: sha256WithRSAEncryption
        Issuer: CN = Jsign Code Signing CA
        Validity
            Not Before: Jun 15 19:55:56 2017 GMT
            Not After : Jun 10 19:55:56 2037 GMT
        Subject: CN = Jsign Code Signing Test Certificate
        Subject Public Key Info:
            Public Key Algorithm: rsaEncryption
                Public-Key: (1024 bit)
                Modulus:
                    00:9a:30:8a:0a:2b:91:e4:d3:12:85:a4:da:89:01:
                    f3:d4:df:b5:98:28:b2:75:03:91:ba:a8:76:62:6a:
                    ce:94:6f:a5:58:19:26:e0:67:92:8b:22:9a:bd:fb:
                    f5:3a:86:55:e3:24:61:01:ad:7f:58:e5:a0:7f:be:
                    c6:f7:72:6f:cc:57:da:bd:1b:f8:a5:a2:82:05:b0:
                    5b:38:26:9f:44:20:91:00:04:91:c5:3d:1a:68:d6:
                    26:77:9d:f0:21:3e:22:f5:16:50:c7:a6:17:53:90:
                    09:b0:37:50:8f:ce:5e:e9:a3:25:7b:a8:08:77:e7:
                    5e:d3:35:b8:91:8f:23:16:ed
                Exponent: 65537 (0x10001)
        X509v3 extensions:
            X509v3 Basic Constraints: 
                CA:FALSE
            X509v3 Key Usage: 
                Digital Signature
            X509v3 Extended Key Usage: 
                Code Signing
            X509v3 Subject Key Identifier: 
                29:EF:5F:1C:9C:66:0A:23:0B:D4:14:60:75:CC:ED:D1:C5:75:E9:1D
            X509v3 Authority Key Identifier: 
                keyid:16:A2:06:71:91:A8:D4:28:44:97:1F:95:E7:1A:5F:8C:9B:BE:2B:E0

    Signature Algorithm: sha256WithRSAEncryption
         88:cd:45:59:f1:76:7f:10:91:44:b0:14:e3:62:21:d1:16:f8:
         3b:ee:a5:b7:22:4b:33:03:6e:3b:d5:51:37:b2:29:5f:76:89:
         b3:a9:04:e7:ea:c6:e0:58:bb:69:72:93:b6:69:00:45:75:68:
         d6:99:1b:d0:bf:d8:63:ce:1e:85:32:cf:a2:53:1e:6d:e6:65:
         e9:9a:5a:04:37:95:82:40:e4:12:03:c2:be:69:ab:2c:60:f3:
         66:e9:1f:0d:85:cd:ca:83:96:35:a5:9a:47:ab:96:3f:a8:ac:
         ea:67:ee:3f:eb:ab:dc:0e:5d:63:50:6d:7d:9a:8e:ab:29:79:
         bc:90:9d:8c:8c:fd:5c:45:c8:47:59:e1:76:6c:c0:93:52:60:
         54:ef:45:2c:1b:c6:35:eb:47:e8:9c:c0:90:89:c8:19:37:83:
         e0:3e:d9:35:d6:60:85:a7:02:c7:17:4c:2b:db:7b:0a:65:51:
         c2:fe:bd:ad:f8:9d:6d:c9:c0:c5:a6:76:27:3f:7e:4c:53:8a:
         fd:5e:1e:57:8a:30:13:e7:50:08:ee:2f:65:3f:81:e3:db:87:
         a9:91:a9:bd:45:63:b0:47:c0:e2:43:a3:2b:97:2d:73:f9:e0:
         9e:ea:1e:d2:6e:fe:d7:e6:07:ee:90:cd:21:13:86:0c:3b:5b:
         0a:33:01:19
-----BEGIN CERTIFICATE-----
MIICvDCCAaSgAwIBAgIJAP9OZxamrmcQMA0GCSqGSIb3DQEBCwUAMCAxHjAcBgNV
BAMMFUpzaWduIENvZGUgU2lnbmluZyBDQTAeFw0xNzA2MTUxOTU1NTZaFw0zNzA2
MTAxOTU1NTZaMC4xLDAqBgNVBAMMI0pzaWduIENvZGUgU2lnbmluZyBUZXN0IENl
cnRpZmljYXRlMIGfMA0GCSqGSIb3DQEBAQUAA4GNADCBiQKBgQCaMIoKK5Hk0xKF
pNqJAfPU37WYKLJ1A5G6qHZias6Ub6VYGSbgZ5KLIpq9+/U6hlXjJGEBrX9Y5aB/
vsb3cm/MV9q9G/ilooIFsFs4Jp9EIJEABJHFPRpo1iZ3nfAhPiL1FlDHphdTkAmw
N1CPzl7poyV7qAh3517TNbiRjyMW7QIDAQABo28wbTAJBgNVHRMEAjAAMAsGA1Ud
DwQEAwIHgDATBgNVHSUEDDAKBggrBgEFBQcDAzAdBgNVHQ4EFgQUKe9fHJxmCiML
1BRgdczt0cV16R0wHwYDVR0jBBgwFoAUFqIGcZGo1ChElx+V5xpfjJu+K+AwDQYJ
KoZIhvcNAQELBQADggEBAIjNRVnxdn8QkUSwFONiIdEW+DvupbciSzMDbjvVUTey
KV92ibOpBOfqxuBYu2lyk7ZpAEV1aNaZG9C/2GPOHoUyz6JTHm3mZemaWgQ3lYJA
5BIDwr5pqyxg82bpHw2FzcqDljWlmkerlj+orOpn7j/rq9wOXWNQbX2ajqspebyQ
nYyM/VxFyEdZ4XZswJNSYFTvRSwbxjXrR+icwJCJyBk3g+A+2TXWYIWnAscXTCvb
ewplUcL+va34nW3JwMWmdic/fkxTiv1eHleKMBPnUAjuL2U/gePbh6mRqb1FY7BH
wOJDoyuXLXP54J7qHtJu/tfmB+6QzSEThgw7WwozARk=
-----END CERTIFICATE-----
