Certificate:
    Data:
        Version: 3 (0x2)
        Serial Number:
            99:f4:82:29:68:0c:42:59
    Signature Algorithm: sha256WithRSAEncryption
        Issuer: CN = Jsign Root Certificate Authority
        Validity
            Not Before: Jun 15 19:55:56 2017 GMT
            Not After : Jun 10 19:55:56 2037 GMT
        Subject: CN = Jsign Code Signing CA
        Subject Public Key Info:
            Public Key Algorithm: rsaEncryption
                Public-Key: (2048 bit)
                Modulus:
                    00:b7:56:99:69:a8:f6:cd:d1:92:6b:45:72:69:77:
                    c6:21:21:90:8a:c9:fe:3b:89:06:c6:cb:d0:09:de:
                    56:9e:f1:aa:10:4b:69:c8:4e:7a:8c:4e:2f:81:68:
                    31:22:dc:27:ab:28:fc:69:06:a6:ea:fb:f9:0e:93:
                    9b:9b:9a:0c:ff:0c:ae:1d:cf:ef:26:8e:7e:d4:2e:
                    73:ac:7d:0c:9f:3a:12:a6:1a:f8:ae:b6:14:88:04:
                    d7:2f:b2:04:2f:78:8c:f2:8f:e8:21:20:12:89:e9:
                    cc:4c:40:cc:16:9e:53:f7:33:d3:f4:8a:51:c0:6b:
                    15:8a:64:29:6d:a0:99:fb:df:21:8f:cc:76:8b:4d:
                    80:9d:1c:a2:38:a9:82:01:f1:2b:e5:d8:2f:e4:11:
                    db:cf:cd:ca:0b:0e:e7:92:b9:d9:e0:47:60:2b:68:
                    62:1d:55:84:ab:c4:7e:56:ce:42:c9:c3:0d:81:7a:
                    88:f5:72:28:7b:60:ff:6a:72:0e:e7:4e:f5:7d:0d:
                    f6:d1:39:1a:c7:fc:9c:eb:00:30:37:8f:98:f0:df:
                    47:23:c0:fa:a3:19:15:10:65:b3:81:f3:87:0e:9d:
                    04:32:27:8f:3a:a0:24:62:6d:a8:f5:c2:74:66:59:
                    a8:fc:1a:2c:6f:db:01:9b:7c:5f:70:14:3c:c9:bd:
                    1d:81
                Exponent: 65537 (0x10001)
        X509v3 extensions:
            X509v3 Basic Constraints: 
                CA:TRUE, pathlen:0
            X509v3 Key Usage: 
                Certificate Sign, CRL Sign
            X509v3 Extended Key Usage: 
                Code Signing
            X509v3 Subject Key Identifier: 
                16:A2:06:71:91:A8:D4:28:44:97:1F:95:E7:1A:5F:8C:9B:BE:2B:E0
            X509v3 Authority Key Identifier: 
                keyid:66:7B:D4:F3:0B:60:F9:4A:9F:06:62:D2:40:A6:DD:90:B4:C9:DD:E2

    Signature Algorithm: sha256WithRSAEncryption
         46:73:4d:83:09:28:ca:40:cb:aa:e8:a8:b2:78:a4:e5:b4:3a:
         99:60:8d:b6:6e:2e:8b:14:5a:62:d6:b1:20:38:14:4d:f8:52:
         52:bd:15:5d:a5:a0:2b:9a:b1:22:83:94:c8:1a:f2:b7:1f:34:
         b4:7e:4c:96:34:d0:9f:7e:cc:8c:92:58:58:11:6e:7c:f6:30:
         73:37:7a:91:60:92:cc:5b:91:71:66:f4:85:fb:19:cf:1e:21:
         17:a4:0d:f0:10:c2:de:1b:86:f6:32:0c:5d:28:7b:67:ae:8d:
         89:eb:56:15:28:fb:a4:47:2c:22:90:60:cb:6a:2a:26:2c:bf:
         34:87:46:a7:52:a3:79:c0:74:9e:e5:4b:3a:05:1f:43:77:4f:
         a2:99:c8:fa:31:e4:0e:e4:58:db:6c:f0:4c:89:72:5f:89:36:
         d1:90:4b:44:a3:6b:44:d6:fa:d7:50:30:b6:d3:43:cd:6a:c9:
         2e:49:71:b3:69:3b:a3:a8:42:05:81:3c:67:8c:c9:fb:e6:f2:
         53:11:9c:35:72:f7:5a:e4:ef:87:b3:6d:c3:b2:7a:c2:10:ac:
         05:bc:e5:66:15:0f:3c:98:1f:94:ea:21:74:e0:e7:10:cd:af:
         cd:40:c0:02:2d:41:be:60:95:69:13:46:09:a8:64:62:18:5b:
         fd:ba:0a:f1
-----BEGIN CERTIFICATE-----
MIIDQzCCAiugAwIBAgIJAJn0giloDEJZMA0GCSqGSIb3DQEBCwUAMCsxKTAnBgNV
BAMMIEpzaWduIFJvb3QgQ2VydGlmaWNhdGUgQXV0aG9yaXR5MB4XDTE3MDYxNTE5
NTU1NloXDTM3MDYxMDE5NTU1NlowIDEeMBwGA1UEAwwVSnNpZ24gQ29kZSBTaWdu
aW5nIENBMIIBIjANBgkqhkiG9w0BAQEFAAOCAQ8AMIIBCgKCAQEAt1aZaaj2zdGS
a0VyaXfGISGQisn+O4kGxsvQCd5WnvGqEEtpyE56jE4vgWgxItwnqyj8aQam6vv5
DpObm5oM/wyuHc/vJo5+1C5zrH0MnzoSphr4rrYUiATXL7IEL3iM8o/oISASienM
TEDMFp5T9zPT9IpRwGsVimQpbaCZ+98hj8x2i02AnRyiOKmCAfEr5dgv5BHbz83K
Cw7nkrnZ4EdgK2hiHVWEq8R+Vs5CycMNgXqI9XIoe2D/anIO5071fQ320Tkax/yc
6wAwN4+Y8N9HI8D6oxkVEGWzgfOHDp0EMiePOqAkYm2o9cJ0Zlmo/Bosb9sBm3xf
cBQ8yb0dgQIDAQABo3UwczAPBgNVHRMECDAGAQH/AgEAMAsGA1UdDwQEAwIBBjAT
BgNVHSUEDDAKBggrBgEFBQcDAzAdBgNVHQ4EFgQUFqIGcZGo1ChElx+V5xpfjJu+
K+AwHwYDVR0jBBgwFoAUZnvU8wtg+UqfBmLSQKbdkLTJ3eIwDQYJKoZIhvcNAQEL
BQADggEBAEZzTYMJKMpAy6roqLJ4pOW0OplgjbZuLosUWmLWsSA4FE34UlK9FV2l
oCuasSKDlMga8rcfNLR+TJY00J9+zIySWFgRbnz2MHM3epFgksxbkXFm9IX7Gc8e
IRekDfAQwt4bhvYyDF0oe2eujYnrVhUo+6RHLCKQYMtqKiYsvzSHRqdSo3nAdJ7l
SzoFH0N3T6KZyPox5A7kWNts8EyJcl+JNtGQS0Sja0TW+tdQMLbTQ81qyS5JcbNp
O6OoQgWBPGeMyfvm8lMRnDVy91rk74ezbcOyesIQrAW85WYVDzyYH5TqIXTg5xDN
r81AwAItQb5glWkTRgmoZGIYW/26CvE=
-----END CERTIFICATE-----
Certificate:
    Data:
        Version: 3 (0x2)
        Serial Number:
            c9:9b:ee:7e:4b:f3:b6:d9
    Signature Algorithm: sha256WithRSAEncryption
        Issuer: CN = Jsign Root Certificate Authority
        Validity
            Not Before: Jun 15 19:55:56 2017 GMT
            Not After : Jun 10 19:55:56 2037 GMT
        Subject: CN = Jsign Root Certificate Authority
        Subject Public Key Info:
            Public Key Algorithm: rsaEncryption
                Public-Key: (2048 bit)
                Modulus:
                    00:d8:cd:73:94:17:9d:4e:3c:28:cf:d2:f3:38:63:
                    29:f4:f7:7d:54:fc:33:8a:17:17:bc:a2:04:16:36:
                    1a:c6:cc:1f:71:15:e1:e9:32:f5:7b:13:19:39:ed:
                    27:ea:10:34:cb:3a:5c:dd:69:47:c4:7f:49:18:e4:
                    bd:34:8d:1a:41:c0:a8:91:97:00:15:b2:4e:88:75:
                    4f:5a:4a:b8:5e:f9:03:82:53:fa:64:13:8b:9c:5a:
                    74:ac:b3:42:8d:30:d0:83:0f:f8:5f:07:f9:c2:ca:
                    e9:fb:05:65:10:63:2e:31:64:80:6d:4d:b4:5f:38:
                    54:8d:ce:04:e1:84:dd:09:d9:02:4e:a8:c7:4c:bf:
                    83:89:f9:eb:15:06:42:47:67:2d:22:ff:b6:20:85:
                    a6:c2:35:f7:4e:45:56:d8:0b:da:0f:10:3b:ab:8d:
                    de:03:d2:9d:ce:67:63:1f:e5:f0:14:50:6d:40:3c:
                    eb:3d:0b:ba:9f:ab:77:08:78:ad:a9:75:26:67:47:
                    ae:34:f3:b7:1e:10:9c:0a:20:51:a8:c1:9f:00:b4:
                    d5:c5:42:e5:fc:9d:66:16:80:ca:e9:e9:63:57:e1:
                    d4:0c:ef:b2:0b:00:97:67:0e:10:53:cc:62:38:dc:
                    1c:9a:9a:a1:6e:5f:56:f0:45:34:3b:ae:09:cc:ec:
                    4d:bd
                Exponent: 65537 (0x10001)
        X509v3 extensions:
            X509v3 Subject Key Identifier: 
                66:7B:D4:F3:0B:60:F9:4A:9F:06:62:D2:40:A6:DD:90:B4:C9:DD:E2
            X509v3 Authority Key Identifier: 
                keyid:66:7B:D4:F3:0B:60:F9:4A:9F:06:62:D2:40:A6:DD:90:B4:C9:DD:E2

            X509v3 Basic Constraints: critical
                CA:TRUE
    Signature Algorithm: sha256WithRSAEncryption
         c5:ce:e7:3f:f3:74:94:74:85:17:1e:91:54:05:c5:8b:e5:c8:
         2b:0f:51:af:9c:5a:86:19:bb:0b:3e:63:8e:e9:f9:47:8a:31:
         c9:25:fd:18:46:88:b6:b1:f2:be:29:88:81:07:1a:e1:3a:13:
         bf:2c:a8:8a:46:c5:bb:41:fa:a4:f4:a7:d5:ee:e6:2a:81:08:
         45:46:61:28:00:49:67:f7:aa:80:49:2e:7f:b3:fd:2f:b2:18:
         90:48:b8:b6:fc:68:22:f0:d2:60:45:66:cf:54:9e:70:ba:cb:
         10:14:b7:bc:10:85:00:ca:04:ec:5a:92:7e:39:fa:1f:08:c4:
         09:56:64:07:01:7d:fd:e4:b6:3a:28:22:d3:7a:f3:3a:13:9c:
         4a:fb:04:fb:cd:de:b5:93:d2:42:4c:c2:ff:cc:cd:35:03:18:
         ed:ca:e4:d6:7d:93:7c:10:70:0b:ce:30:ea:a3:78:c9:e2:00:
         84:a6:f7:52:19:7e:da:8a:5e:02:b2:26:06:d7:7a:c2:e1:14:
         51:69:92:8b:4c:17:f7:b7:a2:0b:80:13:11:c9:40:2f:1f:60:
         ee:57:ae:95:62:f0:0d:31:70:90:a1:72:50:b3:ab:6d:95:46:
         75:b3:31:4f:bb:e6:97:64:81:69:12:08:bb:de:0a:98:84:b7:
         bb:27:8e:a8
-----BEGIN CERTIFICATE-----
MIIDLDCCAhSgAwIBAgIJAMmb7n5L87bZMA0GCSqGSIb3DQEBCwUAMCsxKTAnBgNV
BAMMIEpzaWduIFJvb3QgQ2VydGlmaWNhdGUgQXV0aG9yaXR5MB4XDTE3MDYxNTE5
NTU1NloXDTM3MDYxMDE5NTU1NlowKzEpMCcGA1UEAwwgSnNpZ24gUm9vdCBDZXJ0
aWZpY2F0ZSBBdXRob3JpdHkwggEiMA0GCSqGSIb3DQEBAQUAA4IBDwAwggEKAoIB
AQDYzXOUF51OPCjP0vM4Yyn0931U/DOKFxe8ogQWNhrGzB9xFeHpMvV7Exk57Sfq
EDTLOlzdaUfEf0kY5L00jRpBwKiRlwAVsk6IdU9aSrhe+QOCU/pkE4ucWnSss0KN
MNCDD/hfB/nCyun7BWUQYy4xZIBtTbRfOFSNzgThhN0J2QJOqMdMv4OJ+esVBkJH
Zy0i/7YghabCNfdORVbYC9oPEDurjd4D0p3OZ2Mf5fAUUG1APOs9C7qfq3cIeK2p
dSZnR64087ceEJwKIFGowZ8AtNXFQuX8nWYWgMrp6WNX4dQM77ILAJdnDhBTzGI4
3ByamqFuX1bwRTQ7rgnM7E29AgMBAAGjUzBRMB0GA1UdDgQWBBRme9TzC2D5Sp8G
YtJApt2QtMnd4jAfBgNVHSMEGDAWgBRme9TzC2D5Sp8GYtJApt2QtMnd4jAPBgNV
HRMBAf8EBTADAQH/MA0GCSqGSIb3DQEBCwUAA4IBAQDFzuc/83SUdIUXHpFUBcWL
5cgrD1GvnFqGGbsLPmOO6flHijHJJf0YRoi2sfK+KYiBBxrhOhO/LKiKRsW7Qfqk
9KfV7uYqgQhFRmEoAEln96qASS5/s/0vshiQSLi2/Ggi8NJgRWbPVJ5wussQFLe8
EIUAygTsWpJ+OfofCMQJVmQHAX395LY6KCLTevM6E5xK+wT7zd61k9JCTML/zM01
AxjtyuTWfZN8EHALzjDqo3jJ4gCEpvdSGX7ail4CsiYG13rC4RRRaZKLTBf3t6IL
gBMRyUAvH2DuV66VYvANMXCQoXJQs6ttlUZ1szFPu+aXZIFpEgi73gqYhLe7J46o
-----END CERTIFICATE-----
