Certificate:
    Data:
        Version: 3 (0x2)
        Serial Number:
            a4:08:09:01:61:3b:5c:d3
        Signature Algorithm: sha256WithRSAEncryption
        Issuer: CN = Jsign Code Signing CA 2022
        Validity
            Not Before: Nov 15 18:15:33 2022 GMT
            Not After : Nov 10 18:15:33 2042 GMT
        Subject: CN = Jsign Code Signing Test Certificate 2022 (RSA)
        Subject Public Key Info:
            Public Key Algorithm: rsaEncryption
                Public-Key: (2048 bit)
                Modulus:
                    00:a6:90:52:e5:90:ac:79:c7:ca:39:1d:87:05:9d:
                    a9:3f:96:d2:0f:6d:ea:f4:e7:42:65:38:cb:f5:e9:
                    83:9c:2c:17:53:51:32:1d:ae:8c:b8:fb:3d:0c:7e:
                    fa:5e:df:64:9c:77:bc:2d:49:27:5f:d1:33:a0:95:
                    14:16:2e:6b:32:f0:7c:38:e5:e3:f3:63:e2:78:25:
                    8a:df:a2:8c:e2:6d:5e:70:71:48:62:29:29:94:da:
                    39:1c:3d:69:87:0c:22:f1:d1:8b:16:45:aa:95:48:
                    7c:0d:08:ee:08:c4:07:f5:a4:23:a1:ea:f9:e3:ee:
                    d1:91:80:36:8a:e0:80:9c:7f:40:fe:48:84:13:f3:
                    29:29:af:fb:cd:dc:40:0f:79:e0:93:7c:12:37:72:
                    b8:cc:d5:b3:64:aa:3b:28:14:6c:a3:5a:8b:88:e5:
                    9a:2b:44:53:22:81:ff:6f:64:f6:9a:3e:f7:da:49:
                    dc:a5:10:7b:e0:47:96:2d:df:c8:41:4d:cd:47:4f:
                    f6:70:7a:15:4c:3e:f6:4a:38:f3:f0:b4:ab:ba:8a:
                    7a:b2:a4:9d:85:b7:ca:c6:70:0f:bd:16:31:de:34:
                    6b:fe:14:d5:c0:01:48:56:d5:bf:22:15:01:ae:1d:
                    c5:1a:1c:a3:9d:86:92:df:b1:d4:68:4e:0b:3b:4b:
                    b5:0f
                Exponent: 65537 (0x10001)
        X509v3 extensions:
            X509v3 Basic Constraints: 
                CA:FALSE
            X509v3 Key Usage: 
                Digital Signature
            X509v3 Extended Key Usage: 
                Code Signing
            X509v3 Subject Key Identifier: 
                12:C4:8A:0E:6F:16:47:F1:B2:1F:CE:7B:2F:30:E6:27:28:31:34:93
            X509v3 Authority Key Identifier: 
                keyid:9F:69:36:9D:27:A8:1C:79:6C:88:4B:09:91:7A:10:79:7F:66:77:DA

    Signature Algorithm: sha256WithRSAEncryption
         85:7d:b8:3b:b1:78:96:96:2f:43:c9:5c:fd:2d:fa:d3:cd:93:
         88:c2:a8:a5:39:2a:e8:7a:66:7e:5b:66:2e:28:91:14:b3:e3:
         41:06:79:a6:99:bd:8c:41:76:5c:9b:4d:1f:0c:a6:b4:6d:25:
         89:a8:63:1f:3d:ea:ac:1d:97:4c:76:5c:38:71:92:21:43:6c:
         25:eb:bb:1d:9f:fa:ad:3b:c4:e9:2d:c2:19:8f:65:25:22:0a:
         2e:f3:f6:9f:13:a7:cd:f3:0d:26:40:f5:3d:0c:e3:8f:c0:33:
         33:61:05:49:23:7a:29:bb:05:6c:01:78:fe:f3:6a:29:06:4c:
         74:f3:29:e8:d9:32:17:ee:7b:7a:3c:5e:75:48:ca:ea:35:58:
         25:ce:1f:0d:df:50:40:43:70:a4:8e:03:ef:9e:30:dd:80:ec:
         4a:b0:eb:9b:a8:56:33:b0:c1:2d:92:69:45:d0:41:52:dc:13:
         09:32:f0:07:14:67:b5:55:19:21:bf:57:a3:88:16:da:25:77:
         f9:d1:41:ad:27:38:1f:9c:a6:07:47:d1:c4:68:7a:32:e2:46:
         bb:15:31:d6:2a:41:33:8e:1b:32:8c:1c:86:c9:51:bc:fe:36:
         9e:95:22:73:aa:8d:d4:6c:f5:d1:7a:0d:f2:30:fc:16:3e:a4:
         69:88:2c:21
-----BEGIN CERTIFICATE-----
MIIDUDCCAjigAwIBAgIJAKQICQFhO1zTMA0GCSqGSIb3DQEBCwUAMCUxIzAhBgNV
BAMMGkpzaWduIENvZGUgU2lnbmluZyBDQSAyMDIyMB4XDTIyMTExNTE4MTUzM1oX
DTQyMTExMDE4MTUzM1owOTE3MDUGA1UEAwwuSnNpZ24gQ29kZSBTaWduaW5nIFRl
c3QgQ2VydGlmaWNhdGUgMjAyMiAoUlNBKTCCASIwDQYJKoZIhvcNAQEBBQADggEP
ADCCAQoCggEBAKaQUuWQrHnHyjkdhwWdqT+W0g9t6vTnQmU4y/Xpg5wsF1NRMh2u
jLj7PQx++l7fZJx3vC1JJ1/RM6CVFBYuazLwfDjl4/Nj4nglit+ijOJtXnBxSGIp
KZTaORw9aYcMIvHRixZFqpVIfA0I7gjEB/WkI6Hq+ePu0ZGANorggJx/QP5IhBPz
KSmv+83cQA954JN8EjdyuMzVs2SqOygUbKNai4jlmitEUyKB/29k9po+99pJ3KUQ
e+BHli3fyEFNzUdP9nB6FUw+9ko48/C0q7qKerKknYW3ysZwD70WMd40a/4U1cAB
SFbVvyIVAa4dxRoco52Gkt+x1GhOCztLtQ8CAwEAAaNvMG0wCQYDVR0TBAIwADAL
BgNVHQ8EBAMCB4AwEwYDVR0lBAwwCgYIKwYBBQUHAwMwHQYDVR0OBBYEFBLEig5v
Fkfxsh/Oey8w5icoMTSTMB8GA1UdIwQYMBaAFJ9pNp0nqBx5bIhLCZF6EHl/Znfa
MA0GCSqGSIb3DQEBCwUAA4IBAQCFfbg7sXiWli9DyVz9LfrTzZOIwqilOSroemZ+
W2YuKJEUs+NBBnmmmb2MQXZcm00fDKa0bSWJqGMfPeqsHZdMdlw4cZIhQ2wl67sd
n/qtO8TpLcIZj2UlIgou8/afE6fN8w0mQPU9DOOPwDMzYQVJI3opuwVsAXj+82op
Bkx08yno2TIX7nt6PF51SMrqNVglzh8N31BAQ3CkjgPvnjDdgOxKsOubqFYzsMEt
kmlF0EFS3BMJMvAHFGe1VRkhv1ejiBbaJXf50UGtJzgfnKYHR9HEaHoy4ka7FTHW
KkEzjhsyjByGyVG8/jaelSJzqo3UbPXReg3yMPwWPqRpiCwh
-----END CERTIFICATE-----
