Certificate:
    Data:
        Version: 3 (0x2)
        Serial Number:
            23:2a:e7:47:43:b0:ae:4d:a7:4b:ea:e1:53:87:64:4a:f6:ca:7a:05
        Signature Algorithm: sha256WithRSAEncryption
        Issuer: CN = Jsign Code Signing CA 2024
        Validity
            Not Before: May 10 13:08:21 2024 GMT
            Not After : May 10 13:08:21 2044 GMT
        Subject: CN = Jsign Code Signing Test Certificate 2024 (Ed25519)
        Subject Public Key Info:
            Public Key Algorithm: ED25519
                ED25519 Public-Key:
                pub:
                    23:f7:02:37:90:f2:31:ff:7a:a1:24:99:a2:48:77:
                    91:cc:ba:4c:44:bd:6b:c8:7c:cf:b3:ab:68:1e:2d:
                    2f:30
        X509v3 extensions:
            X509v3 Basic Constraints: 
                CA:FALSE
            X509v3 Key Usage: 
                Digital Signature
            X509v3 Extended Key Usage: 
                Code Signing
            X509v3 Subject Key Identifier: 
                09:4F:86:91:81:F8:C1:BD:C4:B6:FE:C5:66:7E:19:A9:17:44:21:4A
            X509v3 Authority Key Identifier: 
                E2:71:4A:A3:53:E9:58:2A:7B:94:44:3D:3B:AE:8A:01:D4:E5:04:FD
            Authority Information Access: 
                CA Issuers - URI:http://raw.githubusercontent.com/ebourg/jsign/master/jsign-core/src/test/resources/keystores/jsign-code-signing-ca.cer
    Signature Algorithm: sha256WithRSAEncryption
    Signature Value:
        0d:e8:75:5a:94:4c:0c:a1:b0:c6:8b:0d:98:c7:31:3b:5e:a8:
        c6:7f:6d:c4:11:bf:27:5c:93:9f:28:9d:97:40:1d:63:83:c2:
        bf:ff:f4:e1:fd:b6:43:fd:5d:6e:99:b9:e2:82:aa:c1:3c:b2:
        c3:86:c4:bf:d1:ec:dd:23:d5:8e:1d:48:e6:10:d7:46:eb:fc:
        a8:20:49:23:9c:1c:0d:83:22:54:92:ed:02:57:f7:22:20:a9:
        5d:12:fb:ec:36:6c:85:b4:38:27:e4:b2:d8:26:7c:c1:a3:83:
        22:25:58:ac:12:84:b6:7e:c6:17:1c:57:8e:bf:70:15:1b:67:
        1d:a6:fe:9d:de:0a:e4:dc:92:f4:8c:c0:6f:a4:ef:2f:96:89:
        05:23:c0:20:f9:4a:52:62:8c:cc:b6:8d:fb:f8:0c:5d:4f:11:
        85:1a:5b:57:08:98:e8:01:7e:19:9a:c8:f8:6a:0f:b4:4b:d2:
        9f:84:a5:bb:ce:c4:5d:1f:96:4d:b8:cb:d2:26:4a:df:66:45:
        32:a1:10:d2:e3:c3:9d:57:45:9e:55:b8:d7:5f:a9:56:2a:2f:
        e6:df:b4:5f:8a:9c:40:e8:8f:ee:2f:d7:bb:0c:d9:3e:94:dd:
        57:fb:aa:55:18:2e:3a:f3:91:a3:42:a3:85:a5:46:a3:88:5f:
        ae:ec:79:ad
-----BEGIN CERTIFICATE-----
MIIDATCCAemgAwIBAgIUIyrnR0Owrk2nS+rhU4dkSvbKegUwDQYJKoZIhvcNAQEL
BQAwJTEjMCEGA1UEAwwaSnNpZ24gQ29kZSBTaWduaW5nIENBIDIwMjQwHhcNMjQw
NTEwMTMwODIxWhcNNDQwNTEwMTMwODIxWjA9MTswOQYDVQQDDDJKc2lnbiBDb2Rl
IFNpZ25pbmcgVGVzdCBDZXJ0aWZpY2F0ZSAyMDI0IChFZDI1NTE5KTAqMAUGAytl
cAMhACP3AjeQ8jH/eqEkmaJId5HMukxEvWvIfM+zq2geLS8wo4IBCTCCAQUwCQYD
VR0TBAIwADALBgNVHQ8EBAMCB4AwEwYDVR0lBAwwCgYIKwYBBQUHAwMwHQYDVR0O
BBYEFAlPhpGB+MG9xLb+xWZ+GakXRCFKMB8GA1UdIwQYMBaAFOJxSqNT6Vgqe5RE
PTuuigHU5QT9MIGVBggrBgEFBQcBAQSBiDCBhTCBggYIKwYBBQUHMAKGdmh0dHA6
Ly9yYXcuZ2l0aHVidXNlcmNvbnRlbnQuY29tL2Vib3VyZy9qc2lnbi9tYXN0ZXIv
anNpZ24tY29yZS9zcmMvdGVzdC9yZXNvdXJjZXMva2V5c3RvcmVzL2pzaWduLWNv
ZGUtc2lnbmluZy1jYS5jZXIwDQYJKoZIhvcNAQELBQADggEBAA3odVqUTAyhsMaL
DZjHMTteqMZ/bcQRvydck58onZdAHWODwr//9OH9tkP9XW6ZueKCqsE8ssOGxL/R
7N0j1Y4dSOYQ10br/KggSSOcHA2DIlSS7QJX9yIgqV0S++w2bIW0OCfkstgmfMGj
gyIlWKwShLZ+xhccV46/cBUbZx2m/p3eCuTckvSMwG+k7y+WiQUjwCD5SlJijMy2
jfv4DF1PEYUaW1cImOgBfhmayPhqD7RL0p+EpbvOxF0flk24y9ImSt9mRTKhENLj
w51XRZ5VuNdfqVYqL+bftF+KnEDoj+4v17sM2T6U3Vf7qlUYLjrzkaNCo4WlRqOI
X67sea0=
-----END CERTIFICATE-----
