Certificate:
    Data:
        Version: 3 (0x2)
        Serial Number:
            07:1f:f9:2e:6f:51:c5:58:e6:88:9d:99:47:0a:08:97:f9:eb:bc:66
        Signature Algorithm: sha256WithRSAEncryption
        Issuer: CN = Jsign Root Certificate Authority 2024
        Validity
            Not Before: May  6 12:51:03 2024 GMT
            Not After : May  1 12:51:03 2044 GMT
        Subject: CN = Jsign Root Certificate Authority 2024
        Subject Public Key Info:
            Public Key Algorithm: rsaEncryption
                Public-Key: (4096 bit)
                Modulus:
                    00:c4:54:ec:f0:69:9f:58:2d:f3:6b:4a:9e:59:d3:
                    37:b8:8b:f0:26:16:18:26:51:d9:98:ed:55:30:3d:
                    92:41:a8:97:d8:40:d8:59:5e:2b:49:30:10:e3:3c:
                    93:93:88:a3:10:f2:0b:bc:bc:e9:94:be:b9:e4:3d:
                    8a:57:df:30:49:36:42:05:ec:97:e9:d1:55:a3:29:
                    1b:51:88:a0:97:9f:5a:e4:0f:77:a2:ff:be:80:f1:
                    cb:32:79:ed:a6:b7:84:1e:ff:0c:a2:53:be:0a:75:
                    b8:54:6b:11:a4:99:d8:c3:a5:d8:af:59:85:7f:76:
                    b0:7e:24:07:4e:a9:d1:f4:22:e0:59:e0:9b:01:01:
                    0e:3e:b1:49:e5:6c:25:66:60:d0:b2:5b:7d:00:f7:
                    04:6a:3b:af:6e:e4:41:72:58:a8:9a:21:eb:5a:de:
                    a4:fe:9a:cc:da:21:87:4f:f9:2a:40:32:98:85:45:
                    b6:f6:7c:b5:0b:38:ce:b6:52:82:77:0c:78:ca:6b:
                    05:7b:a4:ad:2c:ca:6d:2d:8f:89:77:39:a0:42:bc:
                    1e:f1:b9:36:47:4e:1d:84:15:6d:17:ea:be:66:7a:
                    45:3f:8a:0d:77:19:7b:47:b7:df:21:cd:2e:cf:48:
                    d0:61:62:de:6e:4a:c5:09:e4:e7:87:4f:38:13:5f:
                    6a:94:5b:3a:52:56:28:29:69:ab:5f:96:ed:ea:8a:
                    8c:b5:26:0d:0a:e0:70:06:ea:f3:16:f6:19:95:ce:
                    4f:1e:47:10:b4:0e:91:7b:99:1d:ef:08:08:e3:70:
                    e8:bb:86:57:90:99:36:40:41:c2:58:c5:4a:65:a3:
                    7c:1a:95:5f:d0:3e:23:6a:5f:22:df:a3:e3:53:73:
                    88:52:c7:1a:fd:5b:ad:ac:76:3d:c3:de:e2:4b:05:
                    4f:c1:fb:00:55:00:8d:5f:d8:05:09:b3:7a:5c:a1:
                    d9:1a:60:b0:ee:80:fe:a8:c0:0b:d1:19:5f:92:1f:
                    59:bc:f1:68:39:23:f4:81:02:43:a9:f7:46:6e:8c:
                    f4:2c:42:e4:7a:dd:6b:56:7a:24:19:65:23:ff:5a:
                    75:28:b5:eb:aa:67:b8:f3:b5:e7:42:55:3a:9d:17:
                    b4:c5:85:14:47:6d:0e:a4:01:ce:b4:e0:cf:1c:f9:
                    ce:94:4d:39:ce:81:4f:8f:52:8e:7f:3c:61:3a:c0:
                    1a:0b:18:82:1a:8e:06:ee:6c:90:da:20:17:08:90:
                    1f:1e:34:7c:bf:c5:66:65:bc:f0:18:d1:60:48:a2:
                    8e:14:98:86:7e:29:30:d6:2f:78:c9:4c:85:ca:0f:
                    1b:48:1c:f8:c3:25:4e:7b:f6:d5:69:75:ef:b8:ea:
                    f7:30:a3
                Exponent: 65537 (0x10001)
        X509v3 extensions:
            X509v3 Subject Key Identifier: 
                77:A0:44:86:D7:AA:2E:8B:38:D7:C4:5E:78:FE:EB:19:09:41:59:0F
            X509v3 Authority Key Identifier: 
                77:A0:44:86:D7:AA:2E:8B:38:D7:C4:5E:78:FE:EB:19:09:41:59:0F
            X509v3 Basic Constraints: critical
                CA:TRUE
    Signature Algorithm: sha256WithRSAEncryption
    Signature Value:
        5a:a0:40:b0:44:1c:8f:cf:9e:81:a2:f0:92:6b:fe:aa:01:14:
        e4:aa:01:93:7b:20:3c:a2:a1:cd:40:79:7a:56:49:9f:b0:30:
        bf:2a:b8:21:19:f4:29:d3:f8:6e:c2:cf:b6:f6:ff:5e:ed:01:
        6b:04:42:e5:05:53:37:d5:8e:84:8f:75:67:bb:10:12:dc:65:
        fb:b9:01:ea:91:1f:96:00:b5:c6:f3:80:ec:b4:99:45:ba:21:
        1b:77:b2:e0:4e:c6:bf:27:c1:43:d0:7d:a5:b2:a5:18:31:fc:
        3c:5e:8d:8d:b3:a0:8a:d2:75:ad:16:82:f0:3e:e7:1f:7a:c3:
        db:97:fe:dd:44:19:4c:03:b5:f7:e1:33:f9:77:2b:c7:57:fe:
        3f:01:d6:5a:d1:d0:35:dc:96:ac:48:a0:3d:4c:26:cb:ce:8e:
        2b:c9:bf:17:91:b2:9d:45:2c:84:7c:32:7b:a0:5c:72:61:f1:
        c1:a4:97:90:11:22:f4:19:40:75:bb:f4:90:b3:1c:bf:b3:9e:
        b0:33:ac:16:41:ec:97:8e:24:80:02:04:57:c9:d7:35:3b:a4:
        48:b4:49:7a:c3:2e:70:e2:ef:44:c2:1f:d1:e6:3b:33:a6:f4:
        99:02:fa:5a:6d:39:81:c0:33:34:62:94:cd:5d:aa:a5:06:c6:
        a0:00:3b:ff:b8:72:29:3f:ad:8d:32:f8:13:48:92:db:54:08:
        7d:14:04:aa:a1:ba:65:35:c4:9f:91:d8:06:13:63:05:61:37:
        e5:0a:27:19:c0:9e:6b:4e:62:07:1b:83:75:af:dd:ea:94:bb:
        3f:1f:36:b5:e0:d9:45:f7:4b:49:dc:01:82:35:90:22:13:3b:
        11:06:b3:0f:ce:09:e6:b3:e0:aa:ac:da:4a:9b:85:b2:50:3b:
        38:df:8a:39:9e:42:1b:b7:ee:ab:8f:e1:77:0a:3c:03:7f:5b:
        71:28:64:de:66:b7:1a:3f:3f:43:93:10:94:ef:b4:86:f1:97:
        35:a3:b7:c1:21:25:05:4a:f4:d0:fe:0e:2e:14:76:27:8b:26:
        5d:58:44:d6:4c:b1:10:2a:7c:60:82:9e:7f:24:9e:21:b6:c6:
        8d:cc:3e:93:12:d4:c4:84:51:6f:14:4a:fc:d4:9d:c3:8c:e0:
        e3:36:75:74:9c:eb:7d:1f:68:a9:8b:08:a0:84:42:84:89:e4:
        0f:5d:5a:11:3e:05:4c:bf:1b:c4:59:e0:8f:5e:7c:e0:3f:89:
        63:f5:50:18:5b:26:13:bf:b1:f8:90:0a:b2:c2:88:67:7e:14:
        eb:14:d6:d1:67:07:31:79:32:6e:ce:2b:10:d3:c9:17:c0:d5:
        cf:ae:a0:3c:c4:09:45:fa
-----BEGIN CERTIFICATE-----
MIIFQTCCAymgAwIBAgIUBx/5Lm9RxVjmiJ2ZRwoIl/nrvGYwDQYJKoZIhvcNAQEL
BQAwMDEuMCwGA1UEAwwlSnNpZ24gUm9vdCBDZXJ0aWZpY2F0ZSBBdXRob3JpdHkg
MjAyNDAeFw0yNDA1MDYxMjUxMDNaFw00NDA1MDExMjUxMDNaMDAxLjAsBgNVBAMM
JUpzaWduIFJvb3QgQ2VydGlmaWNhdGUgQXV0aG9yaXR5IDIwMjQwggIiMA0GCSqG
SIb3DQEBAQUAA4ICDwAwggIKAoICAQDEVOzwaZ9YLfNrSp5Z0ze4i/AmFhgmUdmY
7VUwPZJBqJfYQNhZXitJMBDjPJOTiKMQ8gu8vOmUvrnkPYpX3zBJNkIF7Jfp0VWj
KRtRiKCXn1rkD3ei/76A8csyee2mt4Qe/wyiU74KdbhUaxGkmdjDpdivWYV/drB+
JAdOqdH0IuBZ4JsBAQ4+sUnlbCVmYNCyW30A9wRqO69u5EFyWKiaIeta3qT+msza
IYdP+SpAMpiFRbb2fLULOM62UoJ3DHjKawV7pK0sym0tj4l3OaBCvB7xuTZHTh2E
FW0X6r5mekU/ig13GXtHt98hzS7PSNBhYt5uSsUJ5OeHTzgTX2qUWzpSVigpaatf
lu3qioy1Jg0K4HAG6vMW9hmVzk8eRxC0DpF7mR3vCAjjcOi7hleQmTZAQcJYxUpl
o3walV/QPiNqXyLfo+NTc4hSxxr9W62sdj3D3uJLBU/B+wBVAI1f2AUJs3pcodka
YLDugP6owAvRGV+SH1m88Wg5I/SBAkOp90ZujPQsQuR63WtWeiQZZSP/WnUoteuq
Z7jztedCVTqdF7TFhRRHbQ6kAc604M8c+c6UTTnOgU+PUo5/PGE6wBoLGIIajgbu
bJDaIBcIkB8eNHy/xWZlvPAY0WBIoo4UmIZ+KTDWL3jJTIXKDxtIHPjDJU579tVp
de+46vcwowIDAQABo1MwUTAdBgNVHQ4EFgQUd6BEhteqLos418ReeP7rGQlBWQ8w
HwYDVR0jBBgwFoAUd6BEhteqLos418ReeP7rGQlBWQ8wDwYDVR0TAQH/BAUwAwEB
/zANBgkqhkiG9w0BAQsFAAOCAgEAWqBAsEQcj8+egaLwkmv+qgEU5KoBk3sgPKKh
zUB5elZJn7Awvyq4IRn0KdP4bsLPtvb/Xu0BawRC5QVTN9WOhI91Z7sQEtxl+7kB
6pEflgC1xvOA7LSZRbohG3ey4E7GvyfBQ9B9pbKlGDH8PF6NjbOgitJ1rRaC8D7n
H3rD25f+3UQZTAO19+Ez+Xcrx1f+PwHWWtHQNdyWrEigPUwmy86OK8m/F5GynUUs
hHwye6BccmHxwaSXkBEi9BlAdbv0kLMcv7OesDOsFkHsl44kgAIEV8nXNTukSLRJ
esMucOLvRMIf0eY7M6b0mQL6Wm05gcAzNGKUzV2qpQbGoAA7/7hyKT+tjTL4E0iS
21QIfRQEqqG6ZTXEn5HYBhNjBWE35QonGcCea05iBxuDda/d6pS7Px82teDZRfdL
SdwBgjWQIhM7EQazD84J5rPgqqzaSpuFslA7ON+KOZ5CG7fuq4/hdwo8A39bcShk
3ma3Gj8/Q5MQlO+0hvGXNaO3wSElBUr00P4OLhR2J4smXVhE1kyxECp8YIKefySe
IbbGjcw+kxLUxIRRbxRK/NSdw4zg4zZ1dJzrfR9oqYsIoIRChInkD11aET4FTL8b
xFngj1584D+JY/VQGFsmE7+x+JAKssKIZ34U6xTW0WcHMXkybs4rENPJF8DVz66g
PMQJRfo=
-----END CERTIFICATE-----
