Certificate:
    Data:
        Version: 3 (0x2)
        Serial Number:
            32:9f:d5:35:c0:6e:41:49:02:14:48:0c:b3:92:31:10:d3:96:62:03
        Signature Algorithm: sha256WithRSAEncryption
        Issuer: CN = Jsign Code Signing CA 2024
        Validity
            Not Before: May  6 12:51:04 2024 GMT
            Not After : May  1 12:51:04 2044 GMT
        Subject: CN = Jsign Code Signing Test Certificate 2024 (EC)
        Subject Public Key Info:
            Public Key Algorithm: id-ecPublicKey
                Public-Key: (384 bit)
                pub:
                    04:da:c7:47:c9:56:6b:3c:22:12:dd:77:11:e2:df:
                    4a:fc:b6:b8:39:ad:2d:2c:be:e6:4a:23:6a:ba:75:
                    7a:c5:c0:c2:2e:99:0b:11:a4:d4:4e:11:98:6c:ed:
                    7c:48:e7:8a:e1:ae:35:08:73:4a:d0:91:3f:ec:8c:
                    c7:85:bb:28:69:67:41:45:3d:56:c8:42:2e:b5:91:
                    3f:86:d4:fa:17:f5:a7:18:0a:40:a9:91:d6:4d:b1:
                    66:ad:6a:80:67:ea:41
                ASN1 OID: secp384r1
                NIST CURVE: P-384
        X509v3 extensions:
            X509v3 Basic Constraints: 
                CA:FALSE
            X509v3 Key Usage: 
                Digital Signature
            X509v3 Extended Key Usage: 
                Code Signing
            X509v3 Subject Key Identifier: 
                68:C9:9B:60:47:9C:18:38:E7:BB:81:2B:3F:EB:74:8C:FB:68:A5:A4
            X509v3 Authority Key Identifier: 
                E3:8F:A1:52:E6:90:EB:85:6A:13:9A:5F:39:16:2A:67:51:E3:4F:ED
            X509v3 CRL Distribution Points: 
                Full Name:
                  URI:http://localhost:31457/jsign-intermediate.crl
            Authority Information Access: 
                OCSP - URI:http://localhost:31457/ocsp
    Signature Algorithm: sha256WithRSAEncryption
    Signature Value:
        40:40:85:4d:a6:e2:57:6b:b9:62:37:66:e2:d8:6b:dc:57:46:
        2e:dc:e6:4c:85:a8:be:d9:cb:df:a6:4d:0b:c3:4e:14:4c:b1:
        32:da:48:f5:48:41:94:8b:40:57:e1:8b:83:fe:ca:21:4e:ab:
        11:dc:06:9c:ea:c8:17:72:94:88:06:39:5b:86:67:7a:c9:23:
        b8:2c:fb:68:68:53:10:c4:97:ed:8e:3f:b9:5f:7d:3d:dd:ad:
        c8:83:04:af:3b:76:36:7f:02:31:fa:4c:a4:7e:57:ae:f5:24:
        f2:7e:47:97:e3:eb:c5:ae:ce:a7:13:ad:1f:7b:9b:99:6e:cd:
        36:52:55:58:de:1d:53:d3:54:1e:a3:df:50:48:3f:17:09:d8:
        ea:52:5b:7d:d1:ff:b1:b1:2b:9b:5d:c2:da:3e:a0:62:68:9b:
        e9:79:c4:ec:e7:4c:8e:cc:2e:5f:7c:38:13:45:96:64:10:29:
        1a:70:8a:71:bf:d7:ff:06:a8:f0:a6:f4:5a:45:cc:5d:59:12:
        e2:20:f3:4b:d5:bc:35:9d:9c:2a:18:5c:5e:d3:3e:53:ed:3f:
        6b:98:4e:97:e7:45:c7:26:ad:f5:04:b3:35:52:d2:a8:fc:9b:
        dc:2f:fe:da:0e:e3:c2:50:3c:2b:8a:0c:1e:ad:06:1f:49:f2:
        ce:d9:3f:b0
-----BEGIN CERTIFICATE-----
MIIDJzCCAg+gAwIBAgIUMp/VNcBuQUkCFEgMs5IxENOWYgMwDQYJKoZIhvcNAQEL
BQAwJTEjMCEGA1UEAwwaSnNpZ24gQ29kZSBTaWduaW5nIENBIDIwMjQwHhcNMjQw
NTA2MTI1MTA0WhcNNDQwNTAxMTI1MTA0WjA4MTYwNAYDVQQDDC1Kc2lnbiBDb2Rl
IFNpZ25pbmcgVGVzdCBDZXJ0aWZpY2F0ZSAyMDI0IChFQykwdjAQBgcqhkjOPQIB
BgUrgQQAIgNiAATax0fJVms8IhLddxHi30r8trg5rS0svuZKI2q6dXrFwMIumQsR
pNROEZhs7XxI54rhrjUIc0rQkT/sjMeFuyhpZ0FFPVbIQi61kT+G1PoX9acYCkCp
kdZNsWataoBn6kGjgekwgeYwCQYDVR0TBAIwADALBgNVHQ8EBAMCB4AwEwYDVR0l
BAwwCgYIKwYBBQUHAwMwHQYDVR0OBBYEFGjJm2BHnBg457uBKz/rdIz7aKWkMB8G
A1UdIwQYMBaAFOOPoVLmkOuFahOaXzkWKmdR40/tMD4GA1UdHwQ3MDUwM6AxoC+G
LWh0dHA6Ly9sb2NhbGhvc3Q6MzE0NTcvanNpZ24taW50ZXJtZWRpYXRlLmNybDA3
BggrBgEFBQcBAQQrMCkwJwYIKwYBBQUHMAGGG2h0dHA6Ly9sb2NhbGhvc3Q6MzE0
NTcvb2NzcDANBgkqhkiG9w0BAQsFAAOCAQEAQECFTabiV2u5Yjdm4thr3FdGLtzm
TIWovtnL36ZNC8NOFEyxMtpI9UhBlItAV+GLg/7KIU6rEdwGnOrIF3KUiAY5W4Zn
eskjuCz7aGhTEMSX7Y4/uV99Pd2tyIMErzt2Nn8CMfpMpH5XrvUk8n5Hl+Prxa7O
pxOtH3ubmW7NNlJVWN4dU9NUHqPfUEg/FwnY6lJbfdH/sbErm13C2j6gYmib6XnE
7OdMjswuX3w4E0WWZBApGnCKcb/X/wao8Kb0WkXMXVkS4iDzS9W8NZ2cKhhcXtM+
U+0/a5hOl+dFxyat9QSzNVLSqPyb3C/+2g7jwlA8K4oMHq0GH0nyztk/sA==
-----END CERTIFICATE-----
