Certificate:
    Data:
        Version: 3 (0x2)
        Serial Number:
            c9:32:60:50:4f:cc:62:d9
        Signature Algorithm: sha256WithRSAEncryption
        Issuer: CN = Jsign Root Certificate Authority 2022
        Validity
            Not Before: Nov 15 18:15:33 2022 GMT
            Not After : Nov 10 18:15:33 2042 GMT
        Subject: CN = Jsign Code Signing CA 2022
        Subject Public Key Info:
            Public Key Algorithm: rsaEncryption
                Public-Key: (2048 bit)
                Modulus:
                    00:ba:62:c5:91:9f:c5:96:a5:17:da:5e:99:8f:3c:
                    03:41:3d:1e:93:a7:c5:93:4e:3c:77:86:d3:9e:2f:
                    9b:44:90:36:fa:fc:eb:9c:a0:1e:45:d8:71:66:40:
                    ff:24:59:d9:21:50:fd:8f:7c:35:ed:9b:b8:ee:60:
                    5f:3e:da:ec:e3:ab:17:5a:b3:b0:81:88:a3:b6:f5:
                    a7:ab:9e:15:8b:61:6f:51:03:28:0a:c0:ea:d1:22:
                    7a:20:f3:1c:8d:4f:6c:d1:9b:b0:60:70:0d:97:d5:
                    30:37:88:2f:4d:37:98:cb:a0:16:4d:2d:20:00:e6:
                    04:48:43:6f:18:11:6b:eb:4c:27:50:a2:37:a6:59:
                    c1:48:52:75:7e:3a:58:63:da:87:42:fe:ab:e2:30:
                    d1:be:a7:6c:c9:7f:af:7d:11:db:4b:ad:28:8a:7c:
                    48:f0:a0:e4:9b:ad:3a:a0:4c:19:7b:8d:83:d0:84:
                    2c:81:d3:b2:47:59:91:c0:35:05:c2:ad:5b:55:5b:
                    73:db:e5:a1:69:5f:bd:f5:aa:f1:76:da:da:9a:89:
                    ee:9c:95:fd:48:89:22:33:81:cd:d1:99:4f:6f:9c:
                    8e:c8:dc:7c:94:f6:d2:2f:2d:ff:4a:3f:b0:e3:52:
                    d3:a5:b0:29:bc:fd:d0:e1:96:31:cf:16:f7:3d:1d:
                    a8:19
                Exponent: 65537 (0x10001)
        X509v3 extensions:
            X509v3 Basic Constraints: 
                CA:TRUE, pathlen:0
            X509v3 Key Usage: 
                Certificate Sign, CRL Sign
            X509v3 Extended Key Usage: 
                Code Signing
            X509v3 Subject Key Identifier: 
                9F:69:36:9D:27:A8:1C:79:6C:88:4B:09:91:7A:10:79:7F:66:77:DA
            X509v3 Authority Key Identifier: 
                keyid:DB:08:95:99:8E:61:5B:95:0B:07:43:CE:C2:D3:30:E2:03:29:03:3E

    Signature Algorithm: sha256WithRSAEncryption
         13:84:3f:02:18:0f:bf:4f:f7:dd:c3:88:c5:5a:ce:32:14:29:
         e4:a4:31:4e:62:70:80:b3:4c:ef:cd:8d:c6:9c:df:5d:43:54:
         63:c0:9d:94:b4:21:e0:f0:a2:22:77:db:51:f3:db:cc:9d:88:
         32:93:82:6c:b7:de:3c:15:a5:ab:d7:ba:b3:55:12:f9:03:0b:
         8a:78:4f:31:5b:66:b9:8b:5f:0b:c3:64:b0:b3:30:1a:7d:cc:
         b0:49:91:1e:b8:6b:44:e7:cc:e5:db:78:32:99:f1:f5:00:35:
         b0:87:c0:be:55:50:cb:30:25:f5:a4:54:17:35:d0:be:dc:c0:
         0c:b3:be:7f:41:87:ba:db:96:1a:0e:87:70:e8:c8:e4:4c:31:
         c8:af:dc:98:f9:44:db:8d:e3:c4:26:13:17:38:4d:34:a7:02:
         87:7b:fe:64:84:aa:e0:68:41:82:20:d7:08:15:c5:36:0a:d6:
         f0:18:a9:bb:71:b2:35:72:3a:1e:70:61:8e:f9:b3:1d:af:31:
         5c:f3:a9:13:80:6d:5b:4d:42:d8:53:19:bf:13:40:e3:dd:40:
         4b:b3:4b:37:5a:35:f7:a5:cc:69:b9:cc:90:dd:0e:6d:95:60:
         38:e6:f5:cc:a8:e7:cf:e1:02:7c:9b:44:0e:8a:6a:7c:06:bf:
         1e:3b:20:20:c7:7e:c4:b5:78:6a:37:58:59:d7:aa:63:31:86:
         33:82:78:a0:64:ad:8c:eb:ff:88:25:b1:c2:7f:5c:7e:a2:9b:
         9b:f5:fb:17:6d:9f:23:74:1c:03:2d:20:6a:ce:01:c5:85:24:
         ba:36:31:52:3b:a0:81:26:80:c9:f7:07:57:2e:40:99:2f:a3:
         01:db:b8:c5:8a:3f:28:e5:0b:49:ba:5e:4b:b8:10:9e:15:b9:
         3c:9a:81:b0:37:71:39:fd:4e:9f:6f:f9:5e:c1:bf:3e:a4:f4:
         e5:be:c4:27:9d:25:45:7b:5d:d7:14:5f:4c:59:6c:3a:1b:79:
         b8:f1:ca:56:6c:3e:06:ba:de:c1:6e:37:a6:ad:6a:9c:b3:ff:
         79:e0:69:98:35:f1:d4:90:06:e0:e6:c4:95:c3:f7:93:fd:b6:
         02:c1:7b:c5:8f:f6:7c:71:71:bd:a7:4b:d1:59:66:de:5c:10:
         28:ba:7a:79:94:71:15:49:10:71:3b:13:3f:a2:22:6c:5d:34:
         57:2d:37:43:ad:8e:a0:8b:14:41:fa:a5:5c:ce:b4:b9:51:2d:
         06:49:4f:61:38:f5:a3:e1:82:79:34:33:da:35:f2:1d:a6:11:
         16:38:ad:b2:50:00:40:69:86:55:fa:c0:08:d3:ff:40:53:91:
         58:a2:87:d2:b9:fd:80:b8
-----BEGIN CERTIFICATE-----
MIIETTCCAjWgAwIBAgIJAMkyYFBPzGLZMA0GCSqGSIb3DQEBCwUAMDAxLjAsBgNV
BAMMJUpzaWduIFJvb3QgQ2VydGlmaWNhdGUgQXV0aG9yaXR5IDIwMjIwHhcNMjIx
MTE1MTgxNTMzWhcNNDIxMTEwMTgxNTMzWjAlMSMwIQYDVQQDDBpKc2lnbiBDb2Rl
IFNpZ25pbmcgQ0EgMjAyMjCCASIwDQYJKoZIhvcNAQEBBQADggEPADCCAQoCggEB
ALpixZGfxZalF9pemY88A0E9HpOnxZNOPHeG054vm0SQNvr865ygHkXYcWZA/yRZ
2SFQ/Y98Ne2buO5gXz7a7OOrF1qzsIGIo7b1p6ueFYthb1EDKArA6tEieiDzHI1P
bNGbsGBwDZfVMDeIL003mMugFk0tIADmBEhDbxgRa+tMJ1CiN6ZZwUhSdX46WGPa
h0L+q+Iw0b6nbMl/r30R20utKIp8SPCg5JutOqBMGXuNg9CELIHTskdZkcA1BcKt
W1Vbc9vloWlfvfWq8Xba2pqJ7pyV/UiJIjOBzdGZT2+cjsjcfJT20i8t/0o/sONS
06WwKbz90OGWMc8W9z0dqBkCAwEAAaN1MHMwDwYDVR0TBAgwBgEB/wIBADALBgNV
HQ8EBAMCAQYwEwYDVR0lBAwwCgYIKwYBBQUHAwMwHQYDVR0OBBYEFJ9pNp0nqBx5
bIhLCZF6EHl/ZnfaMB8GA1UdIwQYMBaAFNsIlZmOYVuVCwdDzsLTMOIDKQM+MA0G
CSqGSIb3DQEBCwUAA4ICAQAThD8CGA+/T/fdw4jFWs4yFCnkpDFOYnCAs0zvzY3G
nN9dQ1RjwJ2UtCHg8KIid9tR89vMnYgyk4Jst948FaWr17qzVRL5AwuKeE8xW2a5
i18Lw2SwszAafcywSZEeuGtE58zl23gymfH1ADWwh8C+VVDLMCX1pFQXNdC+3MAM
s75/QYe625YaDodw6MjkTDHIr9yY+UTbjePEJhMXOE00pwKHe/5khKrgaEGCINcI
FcU2CtbwGKm7cbI1cjoecGGO+bMdrzFc86kTgG1bTULYUxm/E0Dj3UBLs0s3WjX3
pcxpucyQ3Q5tlWA45vXMqOfP4QJ8m0QOimp8Br8eOyAgx37EtXhqN1hZ16pjMYYz
gnigZK2M6/+IJbHCf1x+opub9fsXbZ8jdBwDLSBqzgHFhSS6NjFSO6CBJoDJ9wdX
LkCZL6MB27jFij8o5QtJul5LuBCeFbk8moGwN3E5/U6fb/lewb8+pPTlvsQnnSVF
e13XFF9MWWw6G3m48cpWbD4Gut7BbjemrWqcs/954GmYNfHUkAbg5sSVw/eT/bYC
wXvFj/Z8cXG9p0vRWWbeXBAounp5lHEVSRBxOxM/oiJsXTRXLTdDrY6gixRB+qVc
zrS5US0GSU9hOPWj4YJ5NDPaNfIdphEWOK2yUABAaYZV+sAI0/9AU5FYoofSuf2A
uA==
-----END CERTIFICATE-----
