Certificate:
    Data:
        Version: 3 (0x2)
        Serial Number:
            33:af:7c:ec:26:d1:09:b5:de:be:af:84:88:34:7e:b6:6f:f9:6c:37
        Signature Algorithm: sha256WithRSAEncryption
        Issuer: CN=Jsign Code Signing CA 2026
        Validity
            Not Before: Feb 25 09:33:28 2026 GMT
            Not After : Feb 25 09:33:28 2046 GMT
        Subject: CN=Jsign Code Signing Test Certificate 2026 (RSA)
        Subject Public Key Info:
            Public Key Algorithm: rsaEncryption
                Public-Key: (2048 bit)
                Modulus:
                    00:a6:90:52:e5:90:ac:79:c7:ca:39:1d:87:05:9d:
                    a9:3f:96:d2:0f:6d:ea:f4:e7:42:65:38:cb:f5:e9:
                    83:9c:2c:17:53:51:32:1d:ae:8c:b8:fb:3d:0c:7e:
                    fa:5e:df:64:9c:77:bc:2d:49:27:5f:d1:33:a0:95:
                    14:16:2e:6b:32:f0:7c:38:e5:e3:f3:63:e2:78:25:
                    8a:df:a2:8c:e2:6d:5e:70:71:48:62:29:29:94:da:
                    39:1c:3d:69:87:0c:22:f1:d1:8b:16:45:aa:95:48:
                    7c:0d:08:ee:08:c4:07:f5:a4:23:a1:ea:f9:e3:ee:
                    d1:91:80:36:8a:e0:80:9c:7f:40:fe:48:84:13:f3:
                    29:29:af:fb:cd:dc:40:0f:79:e0:93:7c:12:37:72:
                    b8:cc:d5:b3:64:aa:3b:28:14:6c:a3:5a:8b:88:e5:
                    9a:2b:44:53:22:81:ff:6f:64:f6:9a:3e:f7:da:49:
                    dc:a5:10:7b:e0:47:96:2d:df:c8:41:4d:cd:47:4f:
                    f6:70:7a:15:4c:3e:f6:4a:38:f3:f0:b4:ab:ba:8a:
                    7a:b2:a4:9d:85:b7:ca:c6:70:0f:bd:16:31:de:34:
                    6b:fe:14:d5:c0:01:48:56:d5:bf:22:15:01:ae:1d:
                    c5:1a:1c:a3:9d:86:92:df:b1:d4:68:4e:0b:3b:4b:
                    b5:0f
                Exponent: 65537 (0x10001)
        X509v3 extensions:
            X509v3 Basic Constraints: 
                CA:FALSE
            X509v3 Key Usage: 
                Digital Signature
            X509v3 Extended Key Usage: 
                Code Signing
            X509v3 Subject Key Identifier: 
                12:C4:8A:0E:6F:16:47:F1:B2:1F:CE:7B:2F:30:E6:27:28:31:34:93
            X509v3 Authority Key Identifier: 
                09:43:12:91:12:87:B7:68:37:47:5A:C8:D0:13:5A:CC:40:06:28:E3
            Authority Information Access: 
                CA Issuers - URI:ldap://ldap.example.com/CN=Jsign%20Code%20Signing%20CA,CN=AIA,CN=Public%20Key%20Services,CN=Services,CN=Configuration,DC=jsign,DC=net?cACertificate?base?objectClass=certificationAuthority
                CA Issuers - URI:http://raw.githubusercontent.com/ebourg/jsign/master/jsign-core/src/test/resources/keystores/jsign-code-signing-ca.cer
    Signature Algorithm: sha256WithRSAEncryption
    Signature Value:
        6a:97:d6:7f:70:60:c0:c4:15:0d:9f:bf:ba:10:8d:85:c5:03:
        5b:a1:11:35:1f:7b:ed:5c:66:9c:1a:91:58:87:75:70:a1:c8:
        95:c8:68:4f:c6:23:d2:90:15:39:1d:32:54:30:79:28:4c:17:
        fa:7f:a8:ed:2c:72:ed:8b:30:16:d2:37:9c:76:96:a3:78:d0:
        a0:69:c8:f8:91:5e:2d:fb:26:a5:bc:69:58:91:07:9d:0e:ab:
        fc:c9:6d:2f:12:54:6f:b5:6f:4a:d7:bb:ce:cc:6e:ee:20:ed:
        bf:fa:24:e6:1a:43:52:ff:04:27:87:0f:65:f6:08:6a:fc:64:
        9a:9d:7e:51:4a:07:eb:c6:cc:f1:31:51:95:dc:8c:75:fc:7f:
        9d:5c:d4:75:3f:94:7d:77:94:47:36:ef:60:12:fb:63:28:d4:
        93:b9:62:f6:57:f9:cf:08:53:a1:c6:f9:41:03:8b:92:c6:d0:
        e0:84:79:c4:8c:6e:3a:a6:50:52:44:f8:2b:18:cb:79:4f:77:
        93:1d:53:f1:72:d3:0e:63:dd:3e:d1:cb:94:ad:3c:09:65:46:
        fa:8c:f8:ac:1c:74:c7:74:3f:f1:8d:82:31:24:7c:68:e4:7a:
        27:ed:93:c4:de:97:e9:45:0f:3f:76:f9:63:e2:f8:2c:64:2b:
        ab:9a:17:20
-----BEGIN CERTIFICATE-----
MIIExTCCA62gAwIBAgIUM6987CbRCbXevq+EiDR+tm/5bDcwDQYJKoZIhvcNAQEL
BQAwJTEjMCEGA1UEAwwaSnNpZ24gQ29kZSBTaWduaW5nIENBIDIwMjYwHhcNMjYw
MjI1MDkzMzI4WhcNNDYwMjI1MDkzMzI4WjA5MTcwNQYDVQQDDC5Kc2lnbiBDb2Rl
IFNpZ25pbmcgVGVzdCBDZXJ0aWZpY2F0ZSAyMDI2IChSU0EpMIIBIjANBgkqhkiG
9w0BAQEFAAOCAQ8AMIIBCgKCAQEAppBS5ZCsecfKOR2HBZ2pP5bSD23q9OdCZTjL
9emDnCwXU1EyHa6MuPs9DH76Xt9knHe8LUknX9EzoJUUFi5rMvB8OOXj82PieCWK
36KM4m1ecHFIYikplNo5HD1phwwi8dGLFkWqlUh8DQjuCMQH9aQjoer54+7RkYA2
iuCAnH9A/kiEE/MpKa/7zdxAD3ngk3wSN3K4zNWzZKo7KBRso1qLiOWaK0RTIoH/
b2T2mj732kncpRB74EeWLd/IQU3NR0/2cHoVTD72Sjjz8LSruop6sqSdhbfKxnAP
vRYx3jRr/hTVwAFIVtW/IhUBrh3FGhyjnYaS37HUaE4LO0u1DwIDAQABo4IB1zCC
AdMwCQYDVR0TBAIwADALBgNVHQ8EBAMCB4AwEwYDVR0lBAwwCgYIKwYBBQUHAwMw
HQYDVR0OBBYEFBLEig5vFkfxsh/Oey8w5icoMTSTMB8GA1UdIwQYMBaAFAlDEpES
h7doN0dayNATWsxABijjMIIBYgYIKwYBBQUHAQEEggFUMIIBUDCByAYIKwYBBQUH
MAKGgbtsZGFwOi8vbGRhcC5leGFtcGxlLmNvbS9DTj1Kc2lnbiUyMENvZGUlMjBT
aWduaW5nJTIwQ0EsQ049QUlBLENOPVB1YmxpYyUyMEtleSUyMFNlcnZpY2VzLENO
PVNlcnZpY2VzLENOPUNvbmZpZ3VyYXRpb24sREM9anNpZ24sREM9bmV0P2NBQ2Vy
dGlmaWNhdGU/YmFzZT9vYmplY3RDbGFzcz1jZXJ0aWZpY2F0aW9uQXV0aG9yaXR5
MIGCBggrBgEFBQcwAoZ2aHR0cDovL3Jhdy5naXRodWJ1c2VyY29udGVudC5jb20v
ZWJvdXJnL2pzaWduL21hc3Rlci9qc2lnbi1jb3JlL3NyYy90ZXN0L3Jlc291cmNl
cy9rZXlzdG9yZXMvanNpZ24tY29kZS1zaWduaW5nLWNhLmNlcjANBgkqhkiG9w0B
AQsFAAOCAQEAapfWf3BgwMQVDZ+/uhCNhcUDW6ERNR977VxmnBqRWId1cKHIlcho
T8Yj0pAVOR0yVDB5KEwX+n+o7Sxy7YswFtI3nHaWo3jQoGnI+JFeLfsmpbxpWJEH
nQ6r/MltLxJUb7VvSte7zsxu7iDtv/ok5hpDUv8EJ4cPZfYIavxkmp1+UUoH68bM
8TFRldyMdfx/nVzUdT+UfXeURzbvYBL7YyjUk7li9lf5zwhTocb5QQOLksbQ4IR5
xIxuOqZQUkT4KxjLeU93kx1T8XLTDmPdPtHLlK08CWVG+oz4rBx0x3Q/8Y2CMSR8
aOR6J+2TxN6X6UUPP3b5Y+L4LGQrq5oXIA==
-----END CERTIFICATE-----
Certificate:
    Data:
        Version: 3 (0x2)
        Serial Number:
            21:3b:37:a6:23:a3:8a:96:2b:8d:ac:6f:4f:df:70:c9:5c:b9:82:00
        Signature Algorithm: sha256WithRSAEncryption
        Issuer: CN=Jsign Root Certificate Authority 2026
        Validity
            Not Before: Feb 25 09:33:28 2026 GMT
            Not After : Feb 25 09:33:28 2046 GMT
        Subject: CN=Jsign Code Signing CA 2026
        Subject Public Key Info:
            Public Key Algorithm: rsaEncryption
                Public-Key: (2048 bit)
                Modulus:
                    00:bd:6c:fb:bc:c1:39:c6:42:5d:aa:62:12:50:53:
                    25:45:16:00:43:64:48:b8:cd:d0:f1:47:4d:dd:ff:
                    25:0c:a8:18:fd:fe:e4:0b:73:79:bc:33:29:a4:21:
                    2c:78:3c:91:31:a8:4f:f2:0f:db:9b:7e:3a:34:25:
                    f1:da:3c:72:9d:1f:1d:05:9d:28:08:2a:3d:96:82:
                    62:50:d1:0a:5d:65:bb:9c:fd:ec:91:61:11:15:1e:
                    9a:d4:82:85:a2:f3:ea:b2:49:4c:7a:31:ff:ef:b7:
                    3a:41:cd:15:ce:0e:b1:b7:ae:4c:69:77:ed:dd:3c:
                    0d:ae:4e:5b:89:f8:fe:19:77:9d:7c:72:5b:5b:a2:
                    9d:89:08:de:1c:4c:b2:ce:f3:40:0e:b8:7d:a9:70:
                    99:93:b9:67:43:86:fe:b1:26:d4:ae:6d:85:af:fb:
                    81:0a:09:f1:f6:2f:89:02:cd:de:9d:14:ac:43:1f:
                    d0:bc:be:03:80:eb:58:b8:cd:e7:ba:72:8f:7c:1f:
                    01:df:54:84:79:9d:82:d3:24:e6:58:26:d0:a2:29:
                    b0:46:34:f4:68:87:d2:6d:ea:bb:ec:b3:01:ad:98:
                    dd:fb:46:8b:ff:d8:fb:84:02:29:41:bc:74:96:b2:
                    49:83:aa:ac:88:55:19:4b:5e:32:21:bc:0d:d6:a0:
                    72:ef
                Exponent: 65537 (0x10001)
        X509v3 extensions:
            X509v3 Basic Constraints: 
                CA:TRUE, pathlen:0
            X509v3 Key Usage: 
                Certificate Sign, CRL Sign
            X509v3 Extended Key Usage: 
                Code Signing
            X509v3 Subject Key Identifier: 
                09:43:12:91:12:87:B7:68:37:47:5A:C8:D0:13:5A:CC:40:06:28:E3
            X509v3 Authority Key Identifier: 
                A3:D7:28:51:1B:5C:93:C4:60:40:96:50:28:13:AD:BE:29:19:F7:16
            Authority Information Access: 
                CA Issuers - URI:http://raw.githubusercontent.com/ebourg/jsign/master/jsign-core/src/test/resources/keystores/jsign-root-ca.cer
    Signature Algorithm: sha256WithRSAEncryption
    Signature Value:
        59:9c:48:4f:b5:8c:72:34:dd:61:85:a7:37:b5:80:dd:23:fc:
        12:02:13:34:0a:83:4c:e3:b5:bb:da:46:94:2c:2b:65:fc:f4:
        cf:70:33:b9:96:86:7e:93:30:96:cc:5e:2f:28:5c:15:10:3b:
        06:cd:95:43:46:35:91:6e:16:2a:3f:fa:13:d7:05:ba:07:fd:
        34:fe:1a:58:11:25:42:97:8a:dd:b3:47:a7:1b:7d:7f:86:b6:
        35:81:5e:53:b9:6b:51:af:e6:18:d5:0c:77:b7:bd:ff:e0:a3:
        34:d9:88:1a:29:5a:c9:6e:e8:2c:ee:5b:f7:f7:b0:24:21:3f:
        12:b1:20:54:aa:b6:fb:37:72:df:c4:a1:54:8f:fc:9f:dc:45:
        c7:58:c3:2c:4d:65:e9:ef:b5:b6:a9:5b:2b:8f:00:fd:b6:36:
        78:50:ae:4c:c8:82:f4:ab:ca:b9:11:67:84:fb:4f:19:6f:3c:
        51:2c:b3:0a:a9:20:56:6e:b0:56:af:70:97:1d:32:79:49:be:
        7c:5e:15:fa:13:7d:55:52:94:06:81:98:22:b7:02:9d:9f:14:
        10:93:bd:ef:4c:08:3b:d4:e7:6a:3d:0c:66:d1:26:ca:69:64:
        81:84:70:82:87:7c:b8:68:05:87:9f:45:57:0b:e9:e9:ab:26:
        4c:c2:6e:e7:03:c8:d0:42:e8:76:ed:b6:b8:dc:10:e5:07:72:
        18:b4:fd:75:9d:84:42:f0:bf:94:0d:64:c1:b6:d4:4d:d3:07:
        51:de:b3:0c:b4:57:ff:d3:6f:e0:04:b7:be:6f:18:7f:99:a3:
        55:94:fa:cc:29:ff:b7:24:d5:4a:15:f6:31:4f:76:05:2f:b9:
        c0:cf:9b:a0:49:c2:d2:ec:19:f2:67:64:a8:c6:ee:44:ef:77:
        c1:72:da:20:40:c5:71:b9:2e:97:0c:72:cf:a3:e9:31:a9:ee:
        41:aa:5c:76:16:9c:1a:56:41:64:83:8c:cf:01:75:0d:36:7b:
        3d:17:1a:e4:38:d4:69:80:b7:78:ac:7b:40:61:60:43:04:0d:
        fa:c9:5c:1e:60:f8:c5:33:56:b0:c4:ce:fa:15:e4:12:da:f1:
        d4:5c:7d:74:cb:87:a3:47:41:e7:c7:12:aa:9d:c2:05:bf:0e:
        cd:65:d6:1e:93:61:eb:07:2a:1c:98:0b:77:06:94:7e:8d:59:
        b6:03:8e:4d:2f:f1:26:7b:b2:fc:66:9c:66:22:eb:38:c5:35:
        b2:e4:cc:6f:e1:7e:ec:e6:7b:1f:7f:05:fd:56:81:e0:ba:8d:
        c0:94:5c:34:24:f2:a7:21:99:e9:20:fd:cb:88:06:b4:ec:4f:
        c5:2e:eb:28:c8:0b:d5:9d
-----BEGIN CERTIFICATE-----
MIIE6TCCAtGgAwIBAgIUITs3piOjipYrjaxvT99wyVy5ggAwDQYJKoZIhvcNAQEL
BQAwMDEuMCwGA1UEAwwlSnNpZ24gUm9vdCBDZXJ0aWZpY2F0ZSBBdXRob3JpdHkg
MjAyNjAeFw0yNjAyMjUwOTMzMjhaFw00NjAyMjUwOTMzMjhaMCUxIzAhBgNVBAMM
GkpzaWduIENvZGUgU2lnbmluZyBDQSAyMDI2MIIBIjANBgkqhkiG9w0BAQEFAAOC
AQ8AMIIBCgKCAQEAvWz7vME5xkJdqmISUFMlRRYAQ2RIuM3Q8UdN3f8lDKgY/f7k
C3N5vDMppCEseDyRMahP8g/bm346NCXx2jxynR8dBZ0oCCo9loJiUNEKXWW7nP3s
kWERFR6a1IKFovPqsklMejH/77c6Qc0Vzg6xt65MaXft3TwNrk5bifj+GXedfHJb
W6KdiQjeHEyyzvNADrh9qXCZk7lnQ4b+sSbUrm2Fr/uBCgnx9i+JAs3enRSsQx/Q
vL4DgOtYuM3nunKPfB8B31SEeZ2C0yTmWCbQoimwRjT0aIfSbeq77LMBrZjd+0aL
/9j7hAIpQbx0lrJJg6qsiFUZS14yIbwN1qBy7wIDAQABo4IBBDCCAQAwDwYDVR0T
BAgwBgEB/wIBADALBgNVHQ8EBAMCAQYwEwYDVR0lBAwwCgYIKwYBBQUHAwMwHQYD
VR0OBBYEFAlDEpESh7doN0dayNATWsxABijjMB8GA1UdIwQYMBaAFKPXKFEbXJPE
YECWUCgTrb4pGfcWMIGKBggrBgEFBQcBAQR+MHwwegYIKwYBBQUHMAKGbmh0dHA6
Ly9yYXcuZ2l0aHVidXNlcmNvbnRlbnQuY29tL2Vib3VyZy9qc2lnbi9tYXN0ZXIv
anNpZ24tY29yZS9zcmMvdGVzdC9yZXNvdXJjZXMva2V5c3RvcmVzL2pzaWduLXJv
b3QtY2EuY2VyMA0GCSqGSIb3DQEBCwUAA4ICAQBZnEhPtYxyNN1hhac3tYDdI/wS
AhM0CoNM47W72kaULCtl/PTPcDO5loZ+kzCWzF4vKFwVEDsGzZVDRjWRbhYqP/oT
1wW6B/00/hpYESVCl4rds0enG31/hrY1gV5TuWtRr+YY1Qx3t73/4KM02YgaKVrJ
bugs7lv397AkIT8SsSBUqrb7N3LfxKFUj/yf3EXHWMMsTWXp77W2qVsrjwD9tjZ4
UK5MyIL0q8q5EWeE+08ZbzxRLLMKqSBWbrBWr3CXHTJ5Sb58XhX6E31VUpQGgZgi
twKdnxQQk73vTAg71OdqPQxm0SbKaWSBhHCCh3y4aAWHn0VXC+npqyZMwm7nA8jQ
Quh27ba43BDlB3IYtP11nYRC8L+UDWTBttRN0wdR3rMMtFf/02/gBLe+bxh/maNV
lPrMKf+3JNVKFfYxT3YFL7nAz5ugScLS7BnyZ2Soxu5E73fBctogQMVxuS6XDHLP
o+kxqe5Bqlx2FpwaVkFkg4zPAXUNNns9FxrkONRpgLd4rHtAYWBDBA36yVweYPjF
M1awxM76FeQS2vHUXH10y4ejR0HnxxKqncIFvw7NZdYek2HrByocmAt3BpR+jVm2
A45NL/Eme7L8ZpxmIus4xTWy5Mxv4X7s5nsffwX9VoHguo3AlFw0JPKnIZnpIP3L
iAa07E/FLusoyAvVnQ==
-----END CERTIFICATE-----
Certificate:
    Data:
        Version: 3 (0x2)
        Serial Number:
            7c:47:96:86:d6:fd:bd:f1:9f:99:07:f9:60:97:80:5a:7e:e4:61:e5
        Signature Algorithm: sha256WithRSAEncryption
        Issuer: CN=Jsign Root Certificate Authority 2026
        Validity
            Not Before: Feb 25 09:33:27 2026 GMT
            Not After : Feb 25 09:33:27 2046 GMT
        Subject: CN=Jsign Root Certificate Authority 2026
        Subject Public Key Info:
            Public Key Algorithm: rsaEncryption
                Public-Key: (4096 bit)
                Modulus:
                    00:9c:9b:b8:b3:29:a5:95:d1:65:d4:a8:38:ab:37:
                    b1:00:3e:a3:da:2d:54:82:9c:51:70:d3:9d:d8:58:
                    a8:89:7b:39:51:b3:76:ae:b9:2d:d8:b5:cd:85:d3:
                    f7:ff:db:61:48:ac:14:cc:45:96:b1:8e:bf:d1:69:
                    fd:82:e6:3f:16:cf:17:28:19:81:2d:7f:55:7f:ed:
                    7c:e9:6b:e1:14:28:16:6a:09:3b:f4:54:9a:f8:df:
                    66:d6:8e:36:2d:f5:35:a3:47:0a:b0:bc:99:a8:c5:
                    59:5a:6d:e8:2b:f1:3f:f3:f2:d9:9c:fb:b9:cb:21:
                    c3:cc:4a:63:c9:d8:69:b3:ac:0c:c0:53:7b:11:77:
                    31:09:2b:60:91:ed:70:d3:7a:c6:fb:39:bc:cb:b0:
                    fc:c9:37:a3:b4:31:98:fe:a6:a0:14:31:10:0f:75:
                    e9:c5:57:b6:4c:84:bc:2d:c0:aa:04:57:b0:31:63:
                    04:4a:27:18:41:13:f5:0e:ee:8d:3b:73:3d:57:1e:
                    59:4f:2b:0a:c4:de:56:b6:01:d3:f7:28:1e:32:e8:
                    30:16:98:d2:62:a4:cf:60:79:5f:6d:83:e6:3e:ab:
                    29:70:da:f3:12:f9:13:76:ee:54:bb:50:11:d7:70:
                    6e:7a:3c:df:3a:ae:16:52:2f:88:dd:70:43:a7:81:
                    08:0a:aa:27:6d:83:ba:67:0b:79:15:17:34:94:9c:
                    b4:16:a4:93:6d:ff:7a:53:73:ff:53:96:be:dc:1f:
                    21:6f:5e:d6:96:d1:11:ac:0d:7b:7b:a8:e3:57:01:
                    d3:b5:77:19:27:64:6d:ef:43:78:10:f6:e9:32:f0:
                    78:57:fd:db:1a:78:f0:03:23:49:91:43:d5:89:ed:
                    a1:f6:89:c6:26:7f:fe:77:7d:34:ab:f3:2d:1b:af:
                    84:cc:0a:20:ee:d3:54:5b:9f:71:2f:c4:5f:27:1d:
                    3e:49:5e:a5:f9:f6:ba:c2:b3:c6:be:e6:eb:6b:0d:
                    62:73:a0:c2:a8:e3:1a:b0:98:ec:89:b7:f3:9d:23:
                    e5:20:7b:43:a7:88:8e:2f:cc:bb:d2:23:c9:f0:8d:
                    98:0c:f0:f8:18:37:5d:21:90:3f:7d:6a:2e:73:64:
                    6e:fd:78:f1:78:28:74:f2:65:0c:08:15:1f:84:0b:
                    d8:ad:99:6e:02:b2:53:be:d8:b4:a7:98:25:54:e0:
                    07:3f:cd:fb:16:02:c8:4c:b8:32:56:3f:36:93:97:
                    64:29:ff:ad:c3:e6:c5:8f:9d:85:f0:df:58:5d:25:
                    ab:02:b6:1c:2f:64:e8:9b:4f:bc:75:1e:9c:1f:4b:
                    dd:32:d3:d8:97:ec:c4:8a:b6:2f:a5:0c:ab:4a:03:
                    62:c2:ed
                Exponent: 65537 (0x10001)
        X509v3 extensions:
            X509v3 Subject Key Identifier: 
                A3:D7:28:51:1B:5C:93:C4:60:40:96:50:28:13:AD:BE:29:19:F7:16
            X509v3 Authority Key Identifier: 
                A3:D7:28:51:1B:5C:93:C4:60:40:96:50:28:13:AD:BE:29:19:F7:16
            X509v3 Basic Constraints: critical
                CA:TRUE
    Signature Algorithm: sha256WithRSAEncryption
    Signature Value:
        34:28:38:6f:76:49:58:2e:e2:53:33:b9:db:a5:3e:72:8c:6a:
        5d:6f:44:f1:d6:5c:a1:83:48:7e:ca:2e:d8:36:3c:99:f3:41:
        0f:ca:a3:14:55:9a:99:e2:22:23:b1:d4:c8:01:fb:9e:ee:6a:
        e2:54:2f:94:ab:ba:9e:fa:70:bf:bd:7d:b6:ea:0d:89:3c:98:
        6b:80:4a:29:b3:94:0c:71:5a:3c:a2:fb:0b:42:c5:09:7f:6e:
        af:23:7f:51:aa:6e:b6:03:fa:5e:f1:68:27:61:d7:72:18:b6:
        f4:aa:ed:7b:d8:5c:2e:6f:00:0a:1e:c8:54:e5:c0:b3:06:3f:
        91:02:2f:d6:8f:83:8b:36:bf:6e:fd:3a:ad:a0:8e:a4:f6:4a:
        47:30:ce:ca:ea:d6:98:3c:f2:53:77:8d:68:75:66:1c:b7:f7:
        cb:b7:ee:c2:eb:78:2b:28:b2:97:a2:e2:25:31:66:dc:fd:1e:
        46:35:cd:90:bf:00:30:fc:41:92:46:17:80:f8:09:05:ef:df:
        65:ae:da:57:61:70:d4:4c:07:e9:2b:98:ae:5b:43:20:c6:9d:
        91:bd:cf:ee:a0:88:da:3d:ae:1a:14:03:4b:27:d5:e2:49:de:
        13:4f:9c:bc:ec:13:a4:9c:87:9c:c7:5b:03:4e:9b:78:cc:1e:
        b1:7b:d6:46:ff:9d:fc:5e:99:f7:7d:92:af:74:b4:fb:51:d9:
        9e:65:ec:69:b9:c1:0f:f1:74:9b:ef:34:f2:60:10:ba:d9:75:
        b2:7b:67:ab:85:b6:0a:50:2f:f2:bf:77:3a:eb:ae:cc:c2:1a:
        2a:03:12:ea:22:03:e0:08:a7:68:7b:46:52:df:60:b8:33:4e:
        b2:86:d5:80:5a:a1:2f:4f:67:87:6f:9d:7a:2b:bd:6f:90:c3:
        ec:1f:ae:13:6b:6e:ba:58:99:2d:0e:14:79:c6:a0:a2:d8:ce:
        e0:91:da:e0:dc:04:5f:9c:b0:82:e2:f4:3a:4a:c0:e9:ab:08:
        7c:99:4a:65:21:4b:6e:70:be:17:d7:26:1e:95:6f:55:43:0b:
        50:cb:d8:bb:26:d0:b3:c6:0f:89:77:45:09:a9:90:88:64:cf:
        ad:ef:fa:2a:ea:60:96:d1:06:08:d4:47:f2:5b:fa:84:6c:54:
        ba:c0:56:b5:6f:9e:17:98:e7:0e:92:66:bc:33:75:31:f7:7c:
        39:79:49:96:bf:b3:37:ba:68:70:18:ab:09:a0:66:6f:ea:7f:
        6c:4a:e4:52:7b:96:6a:da:bc:91:04:d2:a2:05:8a:66:88:73:
        0e:95:b0:24:20:ff:2f:16:ba:16:ea:f2:87:5a:46:dc:d1:17:
        b8:4a:f9:2e:be:42:18:3f
-----BEGIN CERTIFICATE-----
MIIFQTCCAymgAwIBAgIUfEeWhtb9vfGfmQf5YJeAWn7kYeUwDQYJKoZIhvcNAQEL
BQAwMDEuMCwGA1UEAwwlSnNpZ24gUm9vdCBDZXJ0aWZpY2F0ZSBBdXRob3JpdHkg
MjAyNjAeFw0yNjAyMjUwOTMzMjdaFw00NjAyMjUwOTMzMjdaMDAxLjAsBgNVBAMM
JUpzaWduIFJvb3QgQ2VydGlmaWNhdGUgQXV0aG9yaXR5IDIwMjYwggIiMA0GCSqG
SIb3DQEBAQUAA4ICDwAwggIKAoICAQCcm7izKaWV0WXUqDirN7EAPqPaLVSCnFFw
053YWKiJezlRs3auuS3Ytc2F0/f/22FIrBTMRZaxjr/Raf2C5j8WzxcoGYEtf1V/
7Xzpa+EUKBZqCTv0VJr432bWjjYt9TWjRwqwvJmoxVlabegr8T/z8tmc+7nLIcPM
SmPJ2GmzrAzAU3sRdzEJK2CR7XDTesb7ObzLsPzJN6O0MZj+pqAUMRAPdenFV7ZM
hLwtwKoEV7AxYwRKJxhBE/UO7o07cz1XHllPKwrE3la2AdP3KB4y6DAWmNJipM9g
eV9tg+Y+qylw2vMS+RN27lS7UBHXcG56PN86rhZSL4jdcEOngQgKqidtg7pnC3kV
FzSUnLQWpJNt/3pTc/9Tlr7cHyFvXtaW0RGsDXt7qONXAdO1dxknZG3vQ3gQ9uky
8HhX/dsaePADI0mRQ9WJ7aH2icYmf/53fTSr8y0br4TMCiDu01Rbn3EvxF8nHT5J
XqX59rrCs8a+5utrDWJzoMKo4xqwmOyJt/OdI+Uge0OniI4vzLvSI8nwjZgM8PgY
N10hkD99ai5zZG79ePF4KHTyZQwIFR+EC9itmW4CslO+2LSnmCVU4Ac/zfsWAshM
uDJWPzaTl2Qp/63D5sWPnYXw31hdJasCthwvZOibT7x1HpwfS90y09iX7MSKti+l
DKtKA2LC7QIDAQABo1MwUTAdBgNVHQ4EFgQUo9coURtck8RgQJZQKBOtvikZ9xYw
HwYDVR0jBBgwFoAUo9coURtck8RgQJZQKBOtvikZ9xYwDwYDVR0TAQH/BAUwAwEB
/zANBgkqhkiG9w0BAQsFAAOCAgEANCg4b3ZJWC7iUzO526U+coxqXW9E8dZcoYNI
fsou2DY8mfNBD8qjFFWameIiI7HUyAH7nu5q4lQvlKu6nvpwv719tuoNiTyYa4BK
KbOUDHFaPKL7C0LFCX9uryN/UaputgP6XvFoJ2HXchi29Krte9hcLm8ACh7IVOXA
swY/kQIv1o+Diza/bv06raCOpPZKRzDOyurWmDzyU3eNaHVmHLf3y7fuwut4Kyiy
l6LiJTFm3P0eRjXNkL8AMPxBkkYXgPgJBe/fZa7aV2Fw1EwH6SuYrltDIMadkb3P
7qCI2j2uGhQDSyfV4kneE0+cvOwTpJyHnMdbA06beMwesXvWRv+d/F6Z932Sr3S0
+1HZnmXsabnBD/F0m+808mAQutl1sntnq4W2ClAv8r93OuuuzMIaKgMS6iID4Ain
aHtGUt9guDNOsobVgFqhL09nh2+deiu9b5DD7B+uE2tuuliZLQ4UecagotjO4JHa
4NwEX5ywguL0OkrA6asIfJlKZSFLbnC+F9cmHpVvVUMLUMvYuybQs8YPiXdFCamQ
iGTPre/6KupgltEGCNRH8lv6hGxUusBWtW+eF5jnDpJmvDN1Mfd8OXlJlr+zN7po
cBirCaBmb+p/bErkUnuWatq8kQTSogWKZohzDpWwJCD/Lxa6Furyh1pG3NEXuEr5
Lr5CGD8=
-----END CERTIFICATE-----
