Certificate:
    Data:
        Version: 3 (0x2)
        Serial Number:
            23:2a:e7:47:43:b0:ae:4d:a7:4b:ea:e1:53:87:64:4a:f6:ca:7a:03
        Signature Algorithm: sha256WithRSAEncryption
        Issuer: CN = Jsign Code Signing CA 2024
        Validity
            Not Before: May 10 13:08:20 2024 GMT
            Not After : May 10 13:08:20 2044 GMT
        Subject: CN = Jsign Code Signing Test Certificate 2024 (RSA)
        Subject Public Key Info:
            Public Key Algorithm: rsaEncryption
                Public-Key: (2048 bit)
                Modulus:
                    00:a6:90:52:e5:90:ac:79:c7:ca:39:1d:87:05:9d:
                    a9:3f:96:d2:0f:6d:ea:f4:e7:42:65:38:cb:f5:e9:
                    83:9c:2c:17:53:51:32:1d:ae:8c:b8:fb:3d:0c:7e:
                    fa:5e:df:64:9c:77:bc:2d:49:27:5f:d1:33:a0:95:
                    14:16:2e:6b:32:f0:7c:38:e5:e3:f3:63:e2:78:25:
                    8a:df:a2:8c:e2:6d:5e:70:71:48:62:29:29:94:da:
                    39:1c:3d:69:87:0c:22:f1:d1:8b:16:45:aa:95:48:
                    7c:0d:08:ee:08:c4:07:f5:a4:23:a1:ea:f9:e3:ee:
                    d1:91:80:36:8a:e0:80:9c:7f:40:fe:48:84:13:f3:
                    29:29:af:fb:cd:dc:40:0f:79:e0:93:7c:12:37:72:
                    b8:cc:d5:b3:64:aa:3b:28:14:6c:a3:5a:8b:88:e5:
                    9a:2b:44:53:22:81:ff:6f:64:f6:9a:3e:f7:da:49:
                    dc:a5:10:7b:e0:47:96:2d:df:c8:41:4d:cd:47:4f:
                    f6:70:7a:15:4c:3e:f6:4a:38:f3:f0:b4:ab:ba:8a:
                    7a:b2:a4:9d:85:b7:ca:c6:70:0f:bd:16:31:de:34:
                    6b:fe:14:d5:c0:01:48:56:d5:bf:22:15:01:ae:1d:
                    c5:1a:1c:a3:9d:86:92:df:b1:d4:68:4e:0b:3b:4b:
                    b5:0f
                Exponent: 65537 (0x10001)
        X509v3 extensions:
            X509v3 Basic Constraints: 
                CA:FALSE
            X509v3 Key Usage: 
                Digital Signature
            X509v3 Extended Key Usage: 
                Code Signing
            X509v3 Subject Key Identifier: 
                12:C4:8A:0E:6F:16:47:F1:B2:1F:CE:7B:2F:30:E6:27:28:31:34:93
            X509v3 Authority Key Identifier: 
                E2:71:4A:A3:53:E9:58:2A:7B:94:44:3D:3B:AE:8A:01:D4:E5:04:FD
            Authority Information Access: 
                CA Issuers - URI:http://raw.githubusercontent.com/ebourg/jsign/master/jsign-core/src/test/resources/keystores/jsign-code-signing-ca.cer
    Signature Algorithm: sha256WithRSAEncryption
    Signature Value:
        35:fe:8d:56:4a:e6:1f:86:ac:53:69:33:52:ed:8c:8c:4e:68:
        14:8c:4c:9a:41:ca:b7:80:1a:cc:31:ea:c5:34:b4:ca:dd:29:
        19:92:27:00:38:f2:a6:a1:6c:a1:f6:5f:09:7f:74:c0:5f:38:
        46:c7:21:fa:aa:5b:cb:57:27:a3:53:22:a6:80:c3:64:e7:d2:
        45:0f:1f:a6:f3:cb:bb:cb:5c:e8:51:d5:f2:1d:ac:4b:00:57:
        24:77:76:4d:7d:0e:ed:88:25:ae:38:ac:1d:2a:ad:55:88:5e:
        c5:55:3d:25:a3:dc:f7:8e:8f:73:28:70:f8:75:8c:53:27:03:
        cd:d9:63:6f:e5:25:23:89:e8:10:72:20:bb:53:3e:e8:94:72:
        47:c1:e8:ad:72:fd:fe:0a:30:08:7a:ed:eb:31:17:d8:d8:13:
        6b:34:9a:ab:71:a8:d3:7d:1d:20:12:7d:c7:f6:0b:0e:a1:9d:
        3c:79:a7:95:70:6c:e8:8f:e5:9d:c2:e3:61:72:f6:d8:cd:b7:
        d7:1c:6f:a3:da:3f:5c:a7:ef:6b:50:49:f6:42:e1:77:11:99:
        b8:90:6a:e8:63:a6:1e:10:a2:9d:6d:d6:ea:d4:d6:07:65:17:
        c8:03:da:f0:dd:35:a2:20:28:85:f6:1e:78:f5:79:93:4f:e5:
        1f:55:0b:4f
-----BEGIN CERTIFICATE-----
MIID9zCCAt+gAwIBAgIUIyrnR0Owrk2nS+rhU4dkSvbKegMwDQYJKoZIhvcNAQEL
BQAwJTEjMCEGA1UEAwwaSnNpZ24gQ29kZSBTaWduaW5nIENBIDIwMjQwHhcNMjQw
NTEwMTMwODIwWhcNNDQwNTEwMTMwODIwWjA5MTcwNQYDVQQDDC5Kc2lnbiBDb2Rl
IFNpZ25pbmcgVGVzdCBDZXJ0aWZpY2F0ZSAyMDI0IChSU0EpMIIBIjANBgkqhkiG
9w0BAQEFAAOCAQ8AMIIBCgKCAQEAppBS5ZCsecfKOR2HBZ2pP5bSD23q9OdCZTjL
9emDnCwXU1EyHa6MuPs9DH76Xt9knHe8LUknX9EzoJUUFi5rMvB8OOXj82PieCWK
36KM4m1ecHFIYikplNo5HD1phwwi8dGLFkWqlUh8DQjuCMQH9aQjoer54+7RkYA2
iuCAnH9A/kiEE/MpKa/7zdxAD3ngk3wSN3K4zNWzZKo7KBRso1qLiOWaK0RTIoH/
b2T2mj732kncpRB74EeWLd/IQU3NR0/2cHoVTD72Sjjz8LSruop6sqSdhbfKxnAP
vRYx3jRr/hTVwAFIVtW/IhUBrh3FGhyjnYaS37HUaE4LO0u1DwIDAQABo4IBCTCC
AQUwCQYDVR0TBAIwADALBgNVHQ8EBAMCB4AwEwYDVR0lBAwwCgYIKwYBBQUHAwMw
HQYDVR0OBBYEFBLEig5vFkfxsh/Oey8w5icoMTSTMB8GA1UdIwQYMBaAFOJxSqNT
6Vgqe5REPTuuigHU5QT9MIGVBggrBgEFBQcBAQSBiDCBhTCBggYIKwYBBQUHMAKG
dmh0dHA6Ly9yYXcuZ2l0aHVidXNlcmNvbnRlbnQuY29tL2Vib3VyZy9qc2lnbi9t
YXN0ZXIvanNpZ24tY29yZS9zcmMvdGVzdC9yZXNvdXJjZXMva2V5c3RvcmVzL2pz
aWduLWNvZGUtc2lnbmluZy1jYS5jZXIwDQYJKoZIhvcNAQELBQADggEBADX+jVZK
5h+GrFNpM1LtjIxOaBSMTJpByreAGswx6sU0tMrdKRmSJwA48qahbKH2Xwl/dMBf
OEbHIfqqW8tXJ6NTIqaAw2Tn0kUPH6bzy7vLXOhR1fIdrEsAVyR3dk19Du2IJa44
rB0qrVWIXsVVPSWj3PeOj3MocPh1jFMnA83ZY2/lJSOJ6BByILtTPuiUckfB6K1y
/f4KMAh67esxF9jYE2s0mqtxqNN9HSASfcf2Cw6hnTx5p5VwbOiP5Z3C42Fy9tjN
t9ccb6PaP1yn72tQSfZC4XcRmbiQauhjph4Qop1t1urU1gdlF8gD2vDdNaIgKIX2
Hnj1eZNP5R9VC08=
-----END CERTIFICATE-----
