Certificate:
    Data:
        Version: 3 (0x2)
        Serial Number:
            3e:8b:98:83:e4:ea:99:17:a5:65:2e:c8:ae:e8:3f:38:ce:f0:e8:94
        Signature Algorithm: sha256WithRSAEncryption
        Issuer: CN = Jsign Code Signing CA
        Validity
            Not Before: Oct 24 21:19:21 2021 GMT
            Not After : Oct 19 21:19:21 2041 GMT
        Subject: CN = Jsign Code Signing Test Certificate (EC)
        Subject Public Key Info:
            Public Key Algorithm: id-ecPublicKey
                Public-Key: (384 bit)
                pub:
                    04:da:c7:47:c9:56:6b:3c:22:12:dd:77:11:e2:df:
                    4a:fc:b6:b8:39:ad:2d:2c:be:e6:4a:23:6a:ba:75:
                    7a:c5:c0:c2:2e:99:0b:11:a4:d4:4e:11:98:6c:ed:
                    7c:48:e7:8a:e1:ae:35:08:73:4a:d0:91:3f:ec:8c:
                    c7:85:bb:28:69:67:41:45:3d:56:c8:42:2e:b5:91:
                    3f:86:d4:fa:17:f5:a7:18:0a:40:a9:91:d6:4d:b1:
                    66:ad:6a:80:67:ea:41
                ASN1 OID: secp384r1
                NIST CURVE: P-384
        X509v3 extensions:
            X509v3 Basic Constraints: 
                CA:FALSE
            X509v3 Key Usage: 
                Digital Signature
            X509v3 Extended Key Usage: 
                Code Signing
            X509v3 Subject Key Identifier: 
                68:C9:9B:60:47:9C:18:38:E7:BB:81:2B:3F:EB:74:8C:FB:68:A5:A4
            X509v3 Authority Key Identifier: 
                keyid:04:D0:EB:70:91:45:5E:42:1E:03:27:49:44:4D:4B:74:B3:35:5D:02

    Signature Algorithm: sha256WithRSAEncryption
         1f:1c:6c:09:ab:d0:ae:98:16:5a:b6:fd:72:f1:e2:fc:9b:13:
         f6:51:af:0c:0d:ff:2a:28:8b:93:b8:f0:fb:03:a3:de:64:0c:
         9a:8c:d9:3f:66:97:d2:04:d7:bf:52:b3:43:02:d5:ee:81:8c:
         a7:5b:98:09:5c:2a:dc:9b:46:d1:15:da:35:6f:0b:c7:b8:f3:
         8d:eb:c3:96:b0:7a:fc:47:44:35:30:d1:38:4b:35:e4:de:c6:
         40:e6:6f:c9:d9:94:cd:56:d1:1b:03:be:be:2d:08:a5:2c:8d:
         02:90:ed:a2:eb:0b:23:04:10:51:a7:d3:4b:4c:e6:d4:4a:87:
         7d:2c:93:f6:8b:a2:94:9d:e5:de:b3:e9:a8:66:25:3b:a6:34:
         4f:b6:37:78:6a:32:28:a8:f1:88:bd:ad:52:df:16:3d:45:e6:
         af:44:88:65:95:6b:18:98:d3:bc:10:37:2a:2e:7c:c0:a3:5f:
         c5:9f:62:45:e6:1c:8b:80:e3:e7:5f:76:4b:2a:6a:f7:ef:36:
         8a:65:0c:bd:a9:c2:fb:5f:c4:77:94:9c:16:32:62:c6:35:b0:
         e9:5e:97:86:c6:49:e9:b6:32:2e:a7:b6:e5:01:74:23:da:5d:
         a7:59:e9:ac:fa:b1:64:11:7c:f8:e7:38:c1:0f:8c:df:22:16:
         73:9d:8a:a0
-----BEGIN CERTIFICATE-----
MIICojCCAYqgAwIBAgIUPouYg+TqmRelZS7Irug/OM7w6JQwDQYJKoZIhvcNAQEL
BQAwIDEeMBwGA1UEAwwVSnNpZ24gQ29kZSBTaWduaW5nIENBMB4XDTIxMTAyNDIx
MTkyMVoXDTQxMTAxOTIxMTkyMVowMzExMC8GA1UEAwwoSnNpZ24gQ29kZSBTaWdu
aW5nIFRlc3QgQ2VydGlmaWNhdGUgKEVDKTB2MBAGByqGSM49AgEGBSuBBAAiA2IA
BNrHR8lWazwiEt13EeLfSvy2uDmtLSy+5kojarp1esXAwi6ZCxGk1E4RmGztfEjn
iuGuNQhzStCRP+yMx4W7KGlnQUU9VshCLrWRP4bU+hf1pxgKQKmR1k2xZq1qgGfq
QaNvMG0wCQYDVR0TBAIwADALBgNVHQ8EBAMCB4AwEwYDVR0lBAwwCgYIKwYBBQUH
AwMwHQYDVR0OBBYEFGjJm2BHnBg457uBKz/rdIz7aKWkMB8GA1UdIwQYMBaAFATQ
63CRRV5CHgMnSURNS3SzNV0CMA0GCSqGSIb3DQEBCwUAA4IBAQAfHGwJq9CumBZa
tv1y8eL8mxP2Ua8MDf8qKIuTuPD7A6PeZAyajNk/ZpfSBNe/UrNDAtXugYynW5gJ
XCrcm0bRFdo1bwvHuPON68OWsHr8R0Q1MNE4SzXk3sZA5m/J2ZTNVtEbA76+LQil
LI0CkO2i6wsjBBBRp9NLTObUSod9LJP2i6KUneXes+moZiU7pjRPtjd4ajIoqPGI
va1S3xY9ReavRIhllWsYmNO8EDcqLnzAo1/Fn2JF5hyLgOPnX3ZLKmr37zaKZQy9
qcL7X8R3lJwWMmLGNbDpXpeGxknptjIup7blAXQj2l2nWems+rFkEXz45zjBD4zf
IhZznYqg
-----END CERTIFICATE-----
