Certificate:
    Data:
        Version: 3 (0x2)
        Serial Number:
            23:2a:e7:47:43:b0:ae:4d:a7:4b:ea:e1:53:87:64:4a:f6:ca:7a:06
        Signature Algorithm: sha256WithRSAEncryption
        Issuer: CN = Jsign Code Signing CA 2024
        Validity
            Not Before: May 10 13:08:21 2024 GMT
            Not After : May 10 13:08:21 2044 GMT
        Subject: CN = Jsign Code Signing Test Certificate 2024 (Ed448)
        Subject Public Key Info:
            Public Key Algorithm: ED448
                ED448 Public-Key:
                pub:
                    78:06:56:5e:32:f1:1a:7e:b2:cf:70:b1:15:52:32:
                    d4:5d:f9:cb:48:ec:08:72:cf:e6:25:7a:19:fa:c4:
                    85:7d:2d:51:ab:3b:ee:fe:70:c6:a8:96:bc:37:01:
                    d1:59:72:d2:bb:f1:44:7e:d9:17:65:00
        X509v3 extensions:
            X509v3 Basic Constraints: 
                CA:FALSE
            X509v3 Key Usage: 
                Digital Signature
            X509v3 Extended Key Usage: 
                Code Signing
            X509v3 Subject Key Identifier: 
                3A:BD:FC:B1:93:A6:62:8D:23:A7:C5:65:AB:91:8E:76:1A:88:92:77
            X509v3 Authority Key Identifier: 
                E2:71:4A:A3:53:E9:58:2A:7B:94:44:3D:3B:AE:8A:01:D4:E5:04:FD
            Authority Information Access: 
                CA Issuers - URI:http://raw.githubusercontent.com/ebourg/jsign/master/jsign-core/src/test/resources/keystores/jsign-code-signing-ca.cer
    Signature Algorithm: sha256WithRSAEncryption
    Signature Value:
        53:39:73:2c:fa:bb:45:cc:bc:7d:ea:43:f4:c6:59:54:58:fe:
        87:4e:c7:c8:9c:cc:a9:55:ac:a0:da:57:88:7c:f5:51:07:f5:
        67:21:f5:eb:33:ac:70:7f:a9:9a:d7:d4:eb:0d:91:10:d8:8b:
        f8:5a:df:5d:74:3a:d8:df:2f:0e:9e:ac:c6:d5:95:b4:13:35:
        34:64:07:c9:fa:36:57:99:49:1b:73:ae:02:63:3b:af:f9:bf:
        6d:03:ec:3b:cc:2d:76:70:82:d6:47:5c:75:ae:cd:79:26:7e:
        87:57:25:a5:93:23:c0:f9:a0:b7:84:49:27:b6:6d:0b:f2:a6:
        aa:be:de:46:ea:d8:0b:6a:81:69:ea:f2:59:75:37:90:d1:86:
        5b:f1:4e:50:7c:fb:83:fb:a5:36:1c:ef:d1:dc:99:76:12:cf:
        8a:28:9e:13:cf:bb:ae:ab:7e:9e:27:f3:db:d9:17:17:f8:33:
        c8:02:d6:6e:54:98:94:69:0c:bd:73:05:50:7d:fb:61:57:f9:
        db:5e:2b:de:02:1c:a3:a1:70:96:29:60:0c:5a:92:7b:24:e9:
        cf:01:76:17:2d:de:63:e2:84:0d:ce:50:39:f2:8a:f3:b7:1e:
        8e:62:b2:94:d5:32:0d:81:15:ce:01:e4:8a:07:ec:64:a6:e4:
        c0:5e:01:52
-----BEGIN CERTIFICATE-----
MIIDGDCCAgCgAwIBAgIUIyrnR0Owrk2nS+rhU4dkSvbKegYwDQYJKoZIhvcNAQEL
BQAwJTEjMCEGA1UEAwwaSnNpZ24gQ29kZSBTaWduaW5nIENBIDIwMjQwHhcNMjQw
NTEwMTMwODIxWhcNNDQwNTEwMTMwODIxWjA7MTkwNwYDVQQDDDBKc2lnbiBDb2Rl
IFNpZ25pbmcgVGVzdCBDZXJ0aWZpY2F0ZSAyMDI0IChFZDQ0OCkwQzAFBgMrZXED
OgB4BlZeMvEafrLPcLEVUjLUXfnLSOwIcs/mJXoZ+sSFfS1Rqzvu/nDGqJa8NwHR
WXLSu/FEftkXZQCjggEJMIIBBTAJBgNVHRMEAjAAMAsGA1UdDwQEAwIHgDATBgNV
HSUEDDAKBggrBgEFBQcDAzAdBgNVHQ4EFgQUOr38sZOmYo0jp8Vlq5GOdhqIkncw
HwYDVR0jBBgwFoAU4nFKo1PpWCp7lEQ9O66KAdTlBP0wgZUGCCsGAQUFBwEBBIGI
MIGFMIGCBggrBgEFBQcwAoZ2aHR0cDovL3Jhdy5naXRodWJ1c2VyY29udGVudC5j
b20vZWJvdXJnL2pzaWduL21hc3Rlci9qc2lnbi1jb3JlL3NyYy90ZXN0L3Jlc291
cmNlcy9rZXlzdG9yZXMvanNpZ24tY29kZS1zaWduaW5nLWNhLmNlcjANBgkqhkiG
9w0BAQsFAAOCAQEAUzlzLPq7Rcy8fepD9MZZVFj+h07HyJzMqVWsoNpXiHz1UQf1
ZyH16zOscH+pmtfU6w2RENiL+FrfXXQ62N8vDp6sxtWVtBM1NGQHyfo2V5lJG3Ou
AmM7r/m/bQPsO8wtdnCC1kdcda7NeSZ+h1clpZMjwPmgt4RJJ7ZtC/Kmqr7eRurY
C2qBaeryWXU3kNGGW/FOUHz7g/ulNhzv0dyZdhLPiiieE8+7rqt+nifz29kXF/gz
yALWblSYlGkMvXMFUH37YVf5214r3gIco6FwlilgDFqSeyTpzwF2Fy3eY+KEDc5Q
OfKK87cejmKylNUyDYEVzgHkigfsZKbkwF4BUg==
-----END CERTIFICATE-----
