Certificate:
    Data:
        Version: 3 (0x2)
        Serial Number:
            45:a2:f7:22:f1:c2:75:a3:d5:dc:c6:82:29:00:df:25:80:d6:99:73
        Signature Algorithm: sha256WithRSAEncryption
        Issuer: CN = Jsign Root Certificate Authority 2024
        Validity
            Not Before: May 10 13:08:20 2024 GMT
            Not After : May 10 13:08:20 2044 GMT
        Subject: CN = Jsign Code Signing CA 2024
        Subject Public Key Info:
            Public Key Algorithm: rsaEncryption
                Public-Key: (2048 bit)
                Modulus:
                    00:bd:fd:41:4a:ad:82:60:ee:77:80:00:ba:a7:d5:
                    fc:0e:6d:47:7b:3c:e7:38:e6:4a:a9:c6:e5:87:47:
                    b5:75:49:54:de:94:27:85:a2:e4:5b:33:23:1e:26:
                    1a:be:43:ea:05:c8:7d:57:a8:3c:b4:2a:e3:e6:43:
                    9c:8d:5f:76:41:f4:a6:44:ca:71:0f:80:c0:b2:a8:
                    6e:31:2b:7d:87:8c:71:46:50:20:c2:17:1e:9c:4b:
                    55:43:65:5d:74:9d:96:49:56:7f:0e:43:1e:1d:63:
                    26:5d:32:e1:73:3f:d5:86:3d:02:3f:8b:dc:3a:c5:
                    c9:2f:e2:ed:57:98:1b:be:8c:3a:00:60:fd:c0:04:
                    04:62:c6:89:a7:78:15:f1:ae:4f:6d:19:c2:44:36:
                    da:77:c0:47:d0:74:97:62:25:3f:c1:10:c2:92:c6:
                    34:7a:5b:3a:da:74:50:cb:e0:62:a7:14:e1:ea:8b:
                    1e:84:70:92:d9:2c:3e:85:f1:6b:b3:1b:03:0a:78:
                    0b:1b:df:58:5b:55:c1:db:05:f1:02:56:f2:28:06:
                    e6:d7:2c:01:43:c7:24:1d:7c:e5:d9:b7:5e:10:bc:
                    4f:4c:2a:c2:c7:1f:2f:cb:28:bd:93:34:e3:d4:f0:
                    16:8d:3a:8d:5f:f8:ac:ed:2e:14:1c:9b:1c:20:63:
                    60:4b
                Exponent: 65537 (0x10001)
        X509v3 extensions:
            X509v3 Basic Constraints: 
                CA:TRUE, pathlen:0
            X509v3 Key Usage: 
                Certificate Sign, CRL Sign
            X509v3 Extended Key Usage: 
                Code Signing
            X509v3 Subject Key Identifier: 
                E2:71:4A:A3:53:E9:58:2A:7B:94:44:3D:3B:AE:8A:01:D4:E5:04:FD
            X509v3 Authority Key Identifier: 
                1C:FF:2E:2C:7E:DC:7E:8C:9E:D4:E8:A7:FA:2D:E6:B5:75:AB:96:11
            Authority Information Access: 
                CA Issuers - URI:http://raw.githubusercontent.com/ebourg/jsign/master/jsign-core/src/test/resources/keystores/jsign-root-ca.cer
    Signature Algorithm: sha256WithRSAEncryption
    Signature Value:
        28:03:e4:51:e8:4d:2f:88:ec:38:67:ec:67:a5:2c:85:4b:b6:
        9a:f7:d0:30:ea:81:18:32:53:bd:c3:e3:c5:e3:fc:53:0e:f1:
        91:bc:c9:a3:6d:1b:93:15:ba:93:32:cc:65:bb:19:08:fd:10:
        86:3e:ce:1c:b3:67:8e:3d:0f:11:49:35:0e:4b:9f:14:e0:35:
        e7:5a:18:b4:f4:63:f2:b0:8f:e3:55:88:b2:b6:04:ab:7e:1b:
        52:16:8f:81:2d:ac:88:d8:cd:95:88:fb:41:6b:6e:55:6a:cf:
        16:9c:2a:26:fb:88:ab:37:e8:08:16:d2:4d:45:4b:a3:8a:1e:
        77:66:d8:9f:2a:8f:cf:88:2f:24:ca:72:a2:79:6b:f3:1f:c7:
        b3:24:e3:28:3f:13:86:e1:0b:ae:8a:cf:2f:11:55:7b:70:59:
        1d:55:bc:39:a1:4f:17:f0:9d:13:7b:14:47:5e:5c:bf:9a:95:
        6e:1c:50:1c:07:8c:f9:a4:26:9a:47:0e:b7:83:54:9a:04:99:
        6a:38:0a:32:33:45:4d:08:0c:93:b1:41:e7:5a:db:14:f5:a8:
        a5:17:0d:43:86:3f:69:55:b3:85:6d:17:e3:29:60:f1:3c:e1:
        eb:47:11:b3:d1:eb:99:58:78:69:35:31:38:62:05:0c:0d:a1:
        a1:c8:f0:bc:fa:0d:35:5f:57:b0:c7:5b:68:61:d5:e6:c8:78:
        02:cc:99:53:5f:e2:d8:ec:77:9d:84:86:b3:50:d4:ec:31:50:
        e7:0c:8c:02:e2:4e:10:b0:8c:3e:5d:5a:55:1a:e2:73:78:c9:
        ca:62:f1:8d:cb:67:98:7b:a3:6c:15:d0:43:f6:91:d0:22:84:
        54:79:d3:cd:e0:7a:ce:e3:8a:6c:22:aa:9a:fe:4c:a0:d2:ca:
        29:2d:49:a9:6d:50:88:26:e9:21:83:f0:65:d0:54:02:46:60:
        ab:6c:c4:2d:6f:03:d4:4a:b9:d9:89:d8:6d:08:03:08:93:bc:
        8d:97:a7:64:c0:33:3d:be:b9:e4:17:a0:3f:fd:2c:20:8a:2a:
        18:7b:84:dd:cb:66:ac:f9:88:c2:48:07:e8:f1:86:63:97:65:
        d8:83:1d:a3:20:fe:68:f2:b5:ee:ff:8d:e1:b7:08:91:0b:f4:
        f6:5b:52:bc:2e:c8:ba:99:f2:ea:61:0b:08:e1:7b:16:cf:8b:
        16:d7:16:c9:c0:34:fc:cb:cd:dc:5a:02:1d:c5:03:85:2d:07:
        70:ab:73:ed:4a:b9:f3:ce:b6:11:98:03:97:9a:66:63:b2:31:
        bc:5a:0a:5c:13:5e:58:fc:51:16:29:b3:47:ef:1b:ca:42:31:
        fa:de:67:ac:4e:ba:0a:a8
-----BEGIN CERTIFICATE-----
MIIE6TCCAtGgAwIBAgIURaL3IvHCdaPV3MaCKQDfJYDWmXMwDQYJKoZIhvcNAQEL
BQAwMDEuMCwGA1UEAwwlSnNpZ24gUm9vdCBDZXJ0aWZpY2F0ZSBBdXRob3JpdHkg
MjAyNDAeFw0yNDA1MTAxMzA4MjBaFw00NDA1MTAxMzA4MjBaMCUxIzAhBgNVBAMM
GkpzaWduIENvZGUgU2lnbmluZyBDQSAyMDI0MIIBIjANBgkqhkiG9w0BAQEFAAOC
AQ8AMIIBCgKCAQEAvf1BSq2CYO53gAC6p9X8Dm1HezznOOZKqcblh0e1dUlU3pQn
haLkWzMjHiYavkPqBch9V6g8tCrj5kOcjV92QfSmRMpxD4DAsqhuMSt9h4xxRlAg
whcenEtVQ2VddJ2WSVZ/DkMeHWMmXTLhcz/Vhj0CP4vcOsXJL+LtV5gbvow6AGD9
wAQEYsaJp3gV8a5PbRnCRDbad8BH0HSXYiU/wRDCksY0els62nRQy+BipxTh6ose
hHCS2Sw+hfFrsxsDCngLG99YW1XB2wXxAlbyKAbm1ywBQ8ckHXzl2bdeELxPTCrC
xx8vyyi9kzTj1PAWjTqNX/is7S4UHJscIGNgSwIDAQABo4IBBDCCAQAwDwYDVR0T
BAgwBgEB/wIBADALBgNVHQ8EBAMCAQYwEwYDVR0lBAwwCgYIKwYBBQUHAwMwHQYD
VR0OBBYEFOJxSqNT6Vgqe5REPTuuigHU5QT9MB8GA1UdIwQYMBaAFBz/Lix+3H6M
ntTop/ot5rV1q5YRMIGKBggrBgEFBQcBAQR+MHwwegYIKwYBBQUHMAKGbmh0dHA6
Ly9yYXcuZ2l0aHVidXNlcmNvbnRlbnQuY29tL2Vib3VyZy9qc2lnbi9tYXN0ZXIv
anNpZ24tY29yZS9zcmMvdGVzdC9yZXNvdXJjZXMva2V5c3RvcmVzL2pzaWduLXJv
b3QtY2EuY2VyMA0GCSqGSIb3DQEBCwUAA4ICAQAoA+RR6E0viOw4Z+xnpSyFS7aa
99Aw6oEYMlO9w+PF4/xTDvGRvMmjbRuTFbqTMsxluxkI/RCGPs4cs2eOPQ8RSTUO
S58U4DXnWhi09GPysI/jVYiytgSrfhtSFo+BLayI2M2ViPtBa25Vas8WnCom+4ir
N+gIFtJNRUujih53ZtifKo/PiC8kynKieWvzH8ezJOMoPxOG4Quuis8vEVV7cFkd
Vbw5oU8X8J0TexRHXly/mpVuHFAcB4z5pCaaRw63g1SaBJlqOAoyM0VNCAyTsUHn
WtsU9ailFw1Dhj9pVbOFbRfjKWDxPOHrRxGz0euZWHhpNTE4YgUMDaGhyPC8+g01
X1ewx1toYdXmyHgCzJlTX+LY7HedhIazUNTsMVDnDIwC4k4QsIw+XVpVGuJzeMnK
YvGNy2eYe6NsFdBD9pHQIoRUedPN4HrO44psIqqa/kyg0sopLUmpbVCIJukhg/Bl
0FQCRmCrbMQtbwPUSrnZidhtCAMIk7yNl6dkwDM9vrnkF6A//SwgiioYe4Tdy2as
+YjCSAfo8YZjl2XYgx2jIP5o8rXu/43htwiRC/T2W1K8Lsi6mfLqYQsI4XsWz4sW
1xbJwDT8y83cWgIdxQOFLQdwq3PtSrnzzrYRmAOXmmZjsjG8WgpcE15Y/FEWKbNH
7xvKQjH63mesTroKqA==
-----END CERTIFICATE-----
