Certificate:
    Data:
        Version: 3 (0x2)
        Serial Number:
            32:9f:d5:35:c0:6e:41:49:02:14:48:0c:b3:92:31:10:d3:96:62:02
        Signature Algorithm: sha256WithRSAEncryption
        Issuer: CN = Jsign Code Signing CA 2024
        Validity
            Not Before: May  6 12:51:03 2024 GMT
            Not After : May  1 12:51:03 2044 GMT
        Subject: CN = Jsign Code Signing Test Certificate 2024 (RSA)
        Subject Public Key Info:
            Public Key Algorithm: rsaEncryption
                Public-Key: (2048 bit)
                Modulus:
                    00:a6:90:52:e5:90:ac:79:c7:ca:39:1d:87:05:9d:
                    a9:3f:96:d2:0f:6d:ea:f4:e7:42:65:38:cb:f5:e9:
                    83:9c:2c:17:53:51:32:1d:ae:8c:b8:fb:3d:0c:7e:
                    fa:5e:df:64:9c:77:bc:2d:49:27:5f:d1:33:a0:95:
                    14:16:2e:6b:32:f0:7c:38:e5:e3:f3:63:e2:78:25:
                    8a:df:a2:8c:e2:6d:5e:70:71:48:62:29:29:94:da:
                    39:1c:3d:69:87:0c:22:f1:d1:8b:16:45:aa:95:48:
                    7c:0d:08:ee:08:c4:07:f5:a4:23:a1:ea:f9:e3:ee:
                    d1:91:80:36:8a:e0:80:9c:7f:40:fe:48:84:13:f3:
                    29:29:af:fb:cd:dc:40:0f:79:e0:93:7c:12:37:72:
                    b8:cc:d5:b3:64:aa:3b:28:14:6c:a3:5a:8b:88:e5:
                    9a:2b:44:53:22:81:ff:6f:64:f6:9a:3e:f7:da:49:
                    dc:a5:10:7b:e0:47:96:2d:df:c8:41:4d:cd:47:4f:
                    f6:70:7a:15:4c:3e:f6:4a:38:f3:f0:b4:ab:ba:8a:
                    7a:b2:a4:9d:85:b7:ca:c6:70:0f:bd:16:31:de:34:
                    6b:fe:14:d5:c0:01:48:56:d5:bf:22:15:01:ae:1d:
                    c5:1a:1c:a3:9d:86:92:df:b1:d4:68:4e:0b:3b:4b:
                    b5:0f
                Exponent: 65537 (0x10001)
        X509v3 extensions:
            X509v3 Basic Constraints: 
                CA:FALSE
            X509v3 Key Usage: 
                Digital Signature
            X509v3 Extended Key Usage: 
                Code Signing
            X509v3 Subject Key Identifier: 
                12:C4:8A:0E:6F:16:47:F1:B2:1F:CE:7B:2F:30:E6:27:28:31:34:93
            X509v3 Authority Key Identifier: 
                E3:8F:A1:52:E6:90:EB:85:6A:13:9A:5F:39:16:2A:67:51:E3:4F:ED
            X509v3 CRL Distribution Points: 
                Full Name:
                  URI:http://localhost:31457/jsign-intermediate.crl
            Authority Information Access: 
                OCSP - URI:http://localhost:31457/ocsp
    Signature Algorithm: sha256WithRSAEncryption
    Signature Value:
        70:d0:72:cc:f1:69:00:ae:c3:ba:40:4b:bf:77:38:6d:8f:1a:
        c8:3c:7a:c5:ed:b8:38:d1:bb:55:d8:df:23:02:0f:50:81:70:
        4f:73:70:fc:d2:66:9f:99:4c:44:e8:c4:47:b1:f1:ad:61:4c:
        3c:02:a7:8c:c5:92:ee:2c:43:c5:22:bd:d2:93:a1:31:cc:e5:
        1b:de:63:8a:4f:b4:06:1c:bb:a8:5d:3c:94:47:6b:94:09:de:
        c3:66:89:94:d8:88:2c:94:9c:82:0b:83:71:8d:57:29:c3:38:
        d9:95:e7:c6:68:84:c3:54:dc:1e:b5:63:a8:54:2e:e9:a2:1e:
        8a:f1:be:f3:a2:c1:09:41:e9:02:33:24:0e:fe:8c:3e:fe:c5:
        3e:ae:01:03:57:dd:a8:2d:4d:fc:85:1b:9f:ba:fd:91:e2:db:
        9b:32:5b:47:b6:e7:f6:ae:21:97:04:02:d0:80:72:a9:ae:dd:
        c7:53:e3:f9:a9:ca:31:2f:2d:f7:8b:ef:55:fe:35:01:ea:92:
        d4:ca:e4:f0:41:75:95:c8:10:39:ab:38:c7:aa:53:dd:a4:9d:
        94:3d:73:e2:a5:f5:1c:b7:a5:39:b1:5c:66:92:75:94:67:4f:
        2f:90:f4:51:c1:f3:9e:4e:9d:cf:54:27:28:89:81:ed:8f:b6:
        e4:ea:86:37
-----BEGIN CERTIFICATE-----
MIID1jCCAr6gAwIBAgIUMp/VNcBuQUkCFEgMs5IxENOWYgIwDQYJKoZIhvcNAQEL
BQAwJTEjMCEGA1UEAwwaSnNpZ24gQ29kZSBTaWduaW5nIENBIDIwMjQwHhcNMjQw
NTA2MTI1MTAzWhcNNDQwNTAxMTI1MTAzWjA5MTcwNQYDVQQDDC5Kc2lnbiBDb2Rl
IFNpZ25pbmcgVGVzdCBDZXJ0aWZpY2F0ZSAyMDI0IChSU0EpMIIBIjANBgkqhkiG
9w0BAQEFAAOCAQ8AMIIBCgKCAQEAppBS5ZCsecfKOR2HBZ2pP5bSD23q9OdCZTjL
9emDnCwXU1EyHa6MuPs9DH76Xt9knHe8LUknX9EzoJUUFi5rMvB8OOXj82PieCWK
36KM4m1ecHFIYikplNo5HD1phwwi8dGLFkWqlUh8DQjuCMQH9aQjoer54+7RkYA2
iuCAnH9A/kiEE/MpKa/7zdxAD3ngk3wSN3K4zNWzZKo7KBRso1qLiOWaK0RTIoH/
b2T2mj732kncpRB74EeWLd/IQU3NR0/2cHoVTD72Sjjz8LSruop6sqSdhbfKxnAP
vRYx3jRr/hTVwAFIVtW/IhUBrh3FGhyjnYaS37HUaE4LO0u1DwIDAQABo4HpMIHm
MAkGA1UdEwQCMAAwCwYDVR0PBAQDAgeAMBMGA1UdJQQMMAoGCCsGAQUFBwMDMB0G
A1UdDgQWBBQSxIoObxZH8bIfznsvMOYnKDE0kzAfBgNVHSMEGDAWgBTjj6FS5pDr
hWoTml85FipnUeNP7TA+BgNVHR8ENzA1MDOgMaAvhi1odHRwOi8vbG9jYWxob3N0
OjMxNDU3L2pzaWduLWludGVybWVkaWF0ZS5jcmwwNwYIKwYBBQUHAQEEKzApMCcG
CCsGAQUFBzABhhtodHRwOi8vbG9jYWxob3N0OjMxNDU3L29jc3AwDQYJKoZIhvcN
AQELBQADggEBAHDQcszxaQCuw7pAS793OG2PGsg8esXtuDjRu1XY3yMCD1CBcE9z
cPzSZp+ZTEToxEex8a1hTDwCp4zFku4sQ8UivdKToTHM5RveY4pPtAYcu6hdPJRH
a5QJ3sNmiZTYiCyUnIILg3GNVynDONmV58ZohMNU3B61Y6hULumiHorxvvOiwQlB
6QIzJA7+jD7+xT6uAQNX3agtTfyFG5+6/ZHi25syW0e25/auIZcEAtCAcqmu3cdT
4/mpyjEvLfeL71X+NQHqktTK5PBBdZXIEDmrOMeqU92knZQ9c+Kl9Ry3pTmxXGaS
dZRnTy+Q9FHB855Onc9UJyiJge2PtuTqhjc=
-----END CERTIFICATE-----
