Certificate:
    Data:
        Version: 3 (0x2)
        Serial Number:
            a4:08:09:01:61:3b:5c:d4
        Signature Algorithm: sha256WithRSAEncryption
        Issuer: CN = Jsign Code Signing CA 2022
        Validity
            Not Before: Nov 15 18:15:33 2022 GMT
            Not After : Nov 10 18:15:33 2042 GMT
        Subject: CN = Jsign Code Signing Test Certificate 2022 (EC)
        Subject Public Key Info:
            Public Key Algorithm: id-ecPublicKey
                Public-Key: (384 bit)
                pub:
                    04:da:c7:47:c9:56:6b:3c:22:12:dd:77:11:e2:df:
                    4a:fc:b6:b8:39:ad:2d:2c:be:e6:4a:23:6a:ba:75:
                    7a:c5:c0:c2:2e:99:0b:11:a4:d4:4e:11:98:6c:ed:
                    7c:48:e7:8a:e1:ae:35:08:73:4a:d0:91:3f:ec:8c:
                    c7:85:bb:28:69:67:41:45:3d:56:c8:42:2e:b5:91:
                    3f:86:d4:fa:17:f5:a7:18:0a:40:a9:91:d6:4d:b1:
                    66:ad:6a:80:67:ea:41
                ASN1 OID: secp384r1
                NIST CURVE: P-384
        X509v3 extensions:
            X509v3 Basic Constraints: 
                CA:FALSE
            X509v3 Key Usage: 
                Digital Signature
            X509v3 Extended Key Usage: 
                Code Signing
            X509v3 Subject Key Identifier: 
                68:C9:9B:60:47:9C:18:38:E7:BB:81:2B:3F:EB:74:8C:FB:68:A5:A4
            X509v3 Authority Key Identifier: 
                keyid:9F:69:36:9D:27:A8:1C:79:6C:88:4B:09:91:7A:10:79:7F:66:77:DA

    Signature Algorithm: sha256WithRSAEncryption
         91:d7:01:0f:73:fc:fb:0a:48:0e:cc:23:40:c2:71:be:16:27:
         1a:97:16:73:f3:43:02:37:0f:4d:90:fa:0c:60:7c:1a:c1:5b:
         d4:5b:1b:75:40:8a:d9:20:c4:92:ff:21:7a:a4:c9:6c:78:c2:
         b0:34:7b:a7:50:ac:bd:7f:4b:7a:6c:83:cb:86:06:ca:35:3c:
         38:d7:22:3f:45:66:25:4c:85:80:8a:e0:81:29:62:98:d5:24:
         66:4f:b1:64:4c:38:53:fc:79:24:0d:df:8f:31:17:f6:0d:14:
         12:33:40:f5:96:fc:4f:51:22:48:08:36:b6:3c:41:03:bd:b6:
         f9:64:b6:8c:74:56:49:a4:62:64:f3:10:6c:69:93:ea:7d:6b:
         6d:c7:e8:ac:fd:0f:0f:6f:7e:db:59:0b:53:0a:8b:d0:f3:71:
         4f:96:c0:2c:69:04:cb:54:75:2b:6f:30:44:b7:45:0f:a0:3d:
         9b:70:59:bb:9f:89:8a:ca:34:73:b7:1e:19:15:da:e7:eb:c2:
         f0:23:88:ad:7e:cf:1e:c1:23:ac:04:6f:21:e3:8b:38:af:78:
         e1:b9:d2:f7:b7:dd:7c:b5:66:a3:cb:1c:e6:64:cc:99:e8:a9:
         93:7e:9a:2a:7c:79:38:57:cc:2b:6c:11:b5:07:e7:92:fa:77:
         f1:e9:5f:f4
-----BEGIN CERTIFICATE-----
MIICoTCCAYmgAwIBAgIJAKQICQFhO1zUMA0GCSqGSIb3DQEBCwUAMCUxIzAhBgNV
BAMMGkpzaWduIENvZGUgU2lnbmluZyBDQSAyMDIyMB4XDTIyMTExNTE4MTUzM1oX
DTQyMTExMDE4MTUzM1owODE2MDQGA1UEAwwtSnNpZ24gQ29kZSBTaWduaW5nIFRl
c3QgQ2VydGlmaWNhdGUgMjAyMiAoRUMpMHYwEAYHKoZIzj0CAQYFK4EEACIDYgAE
2sdHyVZrPCIS3XcR4t9K/La4Oa0tLL7mSiNqunV6xcDCLpkLEaTUThGYbO18SOeK
4a41CHNK0JE/7IzHhbsoaWdBRT1WyEIutZE/htT6F/WnGApAqZHWTbFmrWqAZ+pB
o28wbTAJBgNVHRMEAjAAMAsGA1UdDwQEAwIHgDATBgNVHSUEDDAKBggrBgEFBQcD
AzAdBgNVHQ4EFgQUaMmbYEecGDjnu4ErP+t0jPtopaQwHwYDVR0jBBgwFoAUn2k2
nSeoHHlsiEsJkXoQeX9md9owDQYJKoZIhvcNAQELBQADggEBAJHXAQ9z/PsKSA7M
I0DCcb4WJxqXFnPzQwI3D02Q+gxgfBrBW9RbG3VAitkgxJL/IXqkyWx4wrA0e6dQ
rL1/S3psg8uGBso1PDjXIj9FZiVMhYCK4IEpYpjVJGZPsWRMOFP8eSQN348xF/YN
FBIzQPWW/E9RIkgINrY8QQO9tvlktox0VkmkYmTzEGxpk+p9a23H6Kz9Dw9vfttZ
C1MKi9DzcU+WwCxpBMtUdStvMES3RQ+gPZtwWbufiYrKNHO3HhkV2ufrwvAjiK1+
zx7BI6wEbyHjiziveOG50ve33Xy1ZqPLHOZkzJnoqZN+mip8eThXzCtsEbUH55L6
d/HpX/Q=
-----END CERTIFICATE-----
