Certificate:
    Data:
        Version: 3 (0x2)
        Serial Number:
            3e:8b:98:83:e4:ea:99:17:a5:65:2e:c8:ae:e8:3f:38:ce:f0:e8:93
        Signature Algorithm: sha256WithRSAEncryption
        Issuer: CN = Jsign Code Signing CA
        Validity
            Not Before: Oct 24 21:19:21 2021 GMT
            Not After : Oct 19 21:19:21 2041 GMT
        Subject: CN = Jsign Code Signing Test Certificate (RSA)
        Subject Public Key Info:
            Public Key Algorithm: rsaEncryption
                RSA Public-Key: (1024 bit)
                Modulus:
                    00:9a:30:8a:0a:2b:91:e4:d3:12:85:a4:da:89:01:
                    f3:d4:df:b5:98:28:b2:75:03:91:ba:a8:76:62:6a:
                    ce:94:6f:a5:58:19:26:e0:67:92:8b:22:9a:bd:fb:
                    f5:3a:86:55:e3:24:61:01:ad:7f:58:e5:a0:7f:be:
                    c6:f7:72:6f:cc:57:da:bd:1b:f8:a5:a2:82:05:b0:
                    5b:38:26:9f:44:20:91:00:04:91:c5:3d:1a:68:d6:
                    26:77:9d:f0:21:3e:22:f5:16:50:c7:a6:17:53:90:
                    09:b0:37:50:8f:ce:5e:e9:a3:25:7b:a8:08:77:e7:
                    5e:d3:35:b8:91:8f:23:16:ed
                Exponent: 65537 (0x10001)
        X509v3 extensions:
            X509v3 Basic Constraints: 
                CA:FALSE
            X509v3 Key Usage: 
                Digital Signature
            X509v3 Extended Key Usage: 
                Code Signing
            X509v3 Subject Key Identifier: 
                29:EF:5F:1C:9C:66:0A:23:0B:D4:14:60:75:CC:ED:D1:C5:75:E9:1D
            X509v3 Authority Key Identifier: 
                keyid:04:D0:EB:70:91:45:5E:42:1E:03:27:49:44:4D:4B:74:B3:35:5D:02

    Signature Algorithm: sha256WithRSAEncryption
         40:ed:1e:bd:f8:60:75:4d:59:ae:b2:0e:da:8d:c6:83:9c:8f:
         12:cf:ce:8a:97:b8:95:12:d8:b0:23:84:5f:9c:a3:8e:d4:43:
         81:bc:94:fb:d2:a3:10:98:e1:ad:f3:f2:ba:1a:8e:68:50:ff:
         3c:f8:34:9c:36:b7:3d:01:83:0c:e6:7e:55:ca:52:81:fb:e1:
         2f:e1:e6:94:cb:c1:7d:74:8e:77:4e:82:29:58:05:50:7c:a1:
         b9:d4:f5:2b:b9:23:80:ca:6f:42:a6:f2:37:3c:81:bc:25:84:
         e9:d5:82:d2:ad:26:8d:23:c9:9e:be:6a:cf:28:23:20:12:b5:
         bf:9f:3e:bf:11:92:ab:fa:f6:0d:b0:55:0a:8a:06:9d:c9:0c:
         5c:66:99:3f:23:bf:47:4d:c2:1e:f6:dd:26:34:af:57:e7:09:
         6e:bf:ad:07:be:2a:50:b8:fe:49:54:a7:fe:ba:1a:d9:8c:2b:
         e7:90:67:cb:4d:ed:8f:3f:c9:0b:0d:ec:01:ea:d6:e4:78:5c:
         15:ad:02:24:10:aa:9e:c6:42:28:12:dd:0b:6d:17:aa:16:1c:
         0f:79:ea:96:61:84:bb:d6:1d:46:35:99:60:a8:64:ae:96:db:
         e6:2b:3f:e6:71:3d:3d:bc:01:f4:ab:bd:84:08:d7:77:ed:45:
         6c:11:b7:dd
-----BEGIN CERTIFICATE-----
MIICzTCCAbWgAwIBAgIUPouYg+TqmRelZS7Irug/OM7w6JMwDQYJKoZIhvcNAQEL
BQAwIDEeMBwGA1UEAwwVSnNpZ24gQ29kZSBTaWduaW5nIENBMB4XDTIxMTAyNDIx
MTkyMVoXDTQxMTAxOTIxMTkyMVowNDEyMDAGA1UEAwwpSnNpZ24gQ29kZSBTaWdu
aW5nIFRlc3QgQ2VydGlmaWNhdGUgKFJTQSkwgZ8wDQYJKoZIhvcNAQEBBQADgY0A
MIGJAoGBAJowigorkeTTEoWk2okB89TftZgosnUDkbqodmJqzpRvpVgZJuBnkosi
mr379TqGVeMkYQGtf1jloH++xvdyb8xX2r0b+KWiggWwWzgmn0QgkQAEkcU9GmjW
Jned8CE+IvUWUMemF1OQCbA3UI/OXumjJXuoCHfnXtM1uJGPIxbtAgMBAAGjbzBt
MAkGA1UdEwQCMAAwCwYDVR0PBAQDAgeAMBMGA1UdJQQMMAoGCCsGAQUFBwMDMB0G
A1UdDgQWBBQp718cnGYKIwvUFGB1zO3RxXXpHTAfBgNVHSMEGDAWgBQE0OtwkUVe
Qh4DJ0lETUt0szVdAjANBgkqhkiG9w0BAQsFAAOCAQEAQO0evfhgdU1ZrrIO2o3G
g5yPEs/Oipe4lRLYsCOEX5yjjtRDgbyU+9KjEJjhrfPyuhqOaFD/PPg0nDa3PQGD
DOZ+VcpSgfvhL+HmlMvBfXSOd06CKVgFUHyhudT1K7kjgMpvQqbyNzyBvCWE6dWC
0q0mjSPJnr5qzygjIBK1v58+vxGSq/r2DbBVCooGnckMXGaZPyO/R03CHvbdJjSv
V+cJbr+tB74qULj+SVSn/roa2Ywr55Bny03tjz/JCw3sAerW5HhcFa0CJBCqnsZC
KBLdC20XqhYcD3nqlmGEu9YdRjWZYKhkrpbb5is/5nE9PbwB9Ku9hAjXd+1FbBG3
3Q==
-----END CERTIFICATE-----
