Certificate:
    Data:
        Version: 3 (0x2)
        Serial Number:
            58:28:b4:10:6d:0c:37:1b:fb:dd:3e:cb:83:aa:f8:c6:df:36:06:1b
        Signature Algorithm: sha256WithRSAEncryption
        Issuer: CN = Jsign Root Certificate Authority 2024
        Validity
            Not Before: May  6 12:51:03 2024 GMT
            Not After : May  1 12:51:03 2044 GMT
        Subject: CN = Jsign Code Signing CA 2024
        Subject Public Key Info:
            Public Key Algorithm: rsaEncryption
                Public-Key: (2048 bit)
                Modulus:
                    00:eb:e0:a0:5b:f3:f9:75:8b:23:6c:0c:ba:2f:fb:
                    24:c9:cb:bb:a8:9e:91:0f:35:8e:eb:02:ba:24:16:
                    fc:81:46:a5:43:f8:f5:2e:3b:d4:f3:98:a6:63:1a:
                    df:ed:eb:02:86:17:8f:0e:e0:da:86:34:eb:e0:af:
                    7a:a8:5e:86:1f:12:d0:f0:20:b5:36:00:05:c7:43:
                    fe:b4:9e:4a:bb:87:0f:db:fa:95:a6:55:2c:89:5a:
                    de:49:77:b5:5f:5c:2a:b2:b3:9b:19:bb:7a:ac:5d:
                    16:27:18:94:ba:0a:0c:bb:65:47:8b:af:8e:74:4a:
                    e2:ed:8d:0b:45:f8:bd:b3:32:42:6e:c6:ae:4e:d8:
                    dd:ff:d2:58:3e:60:4d:a4:a4:1e:8f:20:2c:fa:82:
                    14:0b:22:1b:61:a1:41:1d:11:c6:42:32:1e:40:a0:
                    4c:d2:c1:ab:52:ed:4a:73:09:7b:c1:c2:bb:1d:31:
                    28:82:ba:76:26:13:0e:50:0a:52:14:6e:fa:d6:d4:
                    4d:5b:fb:6c:e4:77:bb:45:5a:60:ce:96:f0:2c:3f:
                    a5:bd:cf:7e:05:d1:73:af:19:72:54:1d:fa:5c:31:
                    d4:ef:f1:27:5e:ce:77:2d:f8:62:cb:2a:53:75:38:
                    a7:d0:f0:01:32:3f:bc:4e:6b:ef:88:ce:01:ae:83:
                    53:17
                Exponent: 65537 (0x10001)
        X509v3 extensions:
            X509v3 Basic Constraints: 
                CA:TRUE, pathlen:0
            X509v3 Key Usage: 
                Certificate Sign, CRL Sign
            X509v3 Extended Key Usage: 
                Code Signing
            X509v3 Subject Key Identifier: 
                E3:8F:A1:52:E6:90:EB:85:6A:13:9A:5F:39:16:2A:67:51:E3:4F:ED
            X509v3 Authority Key Identifier: 
                77:A0:44:86:D7:AA:2E:8B:38:D7:C4:5E:78:FE:EB:19:09:41:59:0F
            X509v3 CRL Distribution Points: 
                Full Name:
                  URI:http://localhost:31457/jsign-ca.crl
            Authority Information Access: 
                OCSP - URI:http://localhost:31457/ocsp
    Signature Algorithm: sha256WithRSAEncryption
    Signature Value:
        0d:81:6b:bb:a1:30:b2:74:0c:94:33:ae:f6:5a:93:b6:94:e0:
        9d:19:5e:c6:7f:e5:e7:a5:4b:e8:aa:32:c1:3a:ec:1a:b1:76:
        7f:66:04:14:4b:30:69:d2:60:6f:a3:05:02:3c:fe:9c:99:12:
        05:0d:c8:9c:9a:e8:8a:20:13:a4:c0:2f:d3:2f:39:55:f2:c1:
        10:e8:b3:80:f0:81:36:3d:31:ff:a7:01:d6:db:29:a5:67:5d:
        4c:39:fa:ad:34:3d:30:bb:89:d3:91:fd:3a:1c:19:72:a8:21:
        36:01:41:78:23:1f:ac:2c:92:6f:f5:b3:a9:75:fd:27:44:7f:
        d2:7f:1a:b8:ac:1b:b8:2e:f2:c9:0d:97:de:3f:eb:05:de:0e:
        6a:fb:f6:6b:ef:2b:a7:13:3e:fe:21:7f:f2:96:e3:9a:b2:86:
        16:dc:a5:b1:33:c5:65:8e:df:ed:38:66:b9:54:d5:42:41:29:
        9f:65:ef:df:f0:9f:99:c4:c2:a0:ee:32:a3:3d:6a:3f:a2:27:
        9e:43:45:fa:c1:27:f3:e8:81:a4:72:10:03:ea:ac:aa:fd:9a:
        49:48:31:75:04:d4:91:d3:3b:9c:fa:54:e4:87:3c:d6:c7:d0:
        ca:b5:ca:2f:17:37:12:a2:42:05:65:ea:ab:24:fd:d8:f6:52:
        15:96:46:51:6f:39:41:60:5c:41:58:f0:61:ec:8c:b0:3d:13:
        1a:12:a3:dd:79:1d:df:2f:5f:f3:0f:02:9e:a6:50:b4:de:5b:
        47:c8:72:22:2c:62:3d:dd:11:3f:d4:0a:9a:6b:ba:dd:8c:b3:
        2a:9e:bd:23:ad:d7:6f:c4:9a:70:2c:ad:ea:43:48:f3:ac:d5:
        2b:ef:4b:90:c4:58:96:f8:d8:50:d1:d7:f7:64:6b:7b:0a:e4:
        dd:c0:a1:10:18:50:47:f0:8d:9c:98:72:85:b1:c0:58:62:42:
        52:c1:18:3b:66:3b:16:6a:93:6d:c5:8a:5f:b5:84:42:03:3e:
        be:2a:96:fc:04:2d:dd:99:b2:f9:0b:ad:9b:95:d6:96:ca:d2:
        f4:b0:ca:47:5c:bc:ca:77:5e:eb:75:da:e3:92:64:bf:21:6a:
        b1:a1:05:32:b5:49:8c:95:0d:e5:7a:1a:7d:85:24:04:63:ff:
        54:b4:f2:1b:ec:f1:14:c3:6a:3a:a9:98:8e:5d:6c:07:c5:02:
        a4:fb:ec:aa:0a:7c:58:07:45:4d:ff:29:c7:07:7e:e8:4f:23:
        d9:b7:96:c2:99:73:2a:97:c2:3d:34:8f:af:53:35:8d:6a:f7:
        df:0a:8a:91:dd:ea:2e:b2:70:cb:0c:49:26:cd:a3:08:cf:0e:
        6d:ed:1a:db:de:d5:84:1a
-----BEGIN CERTIFICATE-----
MIIEyTCCArGgAwIBAgIUWCi0EG0MNxv73T7Lg6r4xt82BhswDQYJKoZIhvcNAQEL
BQAwMDEuMCwGA1UEAwwlSnNpZ24gUm9vdCBDZXJ0aWZpY2F0ZSBBdXRob3JpdHkg
MjAyNDAeFw0yNDA1MDYxMjUxMDNaFw00NDA1MDExMjUxMDNaMCUxIzAhBgNVBAMM
GkpzaWduIENvZGUgU2lnbmluZyBDQSAyMDI0MIIBIjANBgkqhkiG9w0BAQEFAAOC
AQ8AMIIBCgKCAQEA6+CgW/P5dYsjbAy6L/skycu7qJ6RDzWO6wK6JBb8gUalQ/j1
LjvU85imYxrf7esChhePDuDahjTr4K96qF6GHxLQ8CC1NgAFx0P+tJ5Ku4cP2/qV
plUsiVreSXe1X1wqsrObGbt6rF0WJxiUugoMu2VHi6+OdEri7Y0LRfi9szJCbsau
Ttjd/9JYPmBNpKQejyAs+oIUCyIbYaFBHRHGQjIeQKBM0sGrUu1Kcwl7wcK7HTEo
grp2JhMOUApSFG761tRNW/ts5He7RVpgzpbwLD+lvc9+BdFzrxlyVB36XDHU7/En
Xs53LfhiyypTdTin0PABMj+8TmvviM4BroNTFwIDAQABo4HlMIHiMA8GA1UdEwQI
MAYBAf8CAQAwCwYDVR0PBAQDAgEGMBMGA1UdJQQMMAoGCCsGAQUFBwMDMB0GA1Ud
DgQWBBTjj6FS5pDrhWoTml85FipnUeNP7TAfBgNVHSMEGDAWgBR3oESG16ouizjX
xF54/usZCUFZDzA0BgNVHR8ELTArMCmgJ6AlhiNodHRwOi8vbG9jYWxob3N0OjMx
NDU3L2pzaWduLWNhLmNybDA3BggrBgEFBQcBAQQrMCkwJwYIKwYBBQUHMAGGG2h0
dHA6Ly9sb2NhbGhvc3Q6MzE0NTcvb2NzcDANBgkqhkiG9w0BAQsFAAOCAgEADYFr
u6EwsnQMlDOu9lqTtpTgnRlexn/l56VL6KoywTrsGrF2f2YEFEswadJgb6MFAjz+
nJkSBQ3InJroiiATpMAv0y85VfLBEOizgPCBNj0x/6cB1tsppWddTDn6rTQ9MLuJ
05H9OhwZcqghNgFBeCMfrCySb/WzqXX9J0R/0n8auKwbuC7yyQ2X3j/rBd4Oavv2
a+8rpxM+/iF/8pbjmrKGFtylsTPFZY7f7ThmuVTVQkEpn2Xv3/CfmcTCoO4yoz1q
P6InnkNF+sEn8+iBpHIQA+qsqv2aSUgxdQTUkdM7nPpU5Ic81sfQyrXKLxc3EqJC
BWXqqyT92PZSFZZGUW85QWBcQVjwYeyMsD0TGhKj3Xkd3y9f8w8CnqZQtN5bR8hy
IixiPd0RP9QKmmu63YyzKp69I63Xb8SacCyt6kNI86zVK+9LkMRYlvjYUNHX92Rr
ewrk3cChEBhQR/CNnJhyhbHAWGJCUsEYO2Y7FmqTbcWKX7WEQgM+viqW/AQt3Zmy
+Qutm5XWlsrS9LDKR1y8ynde63Xa45JkvyFqsaEFMrVJjJUN5XoafYUkBGP/VLTy
G+zxFMNqOqmYjl1sB8UCpPvsqgp8WAdFTf8pxwd+6E8j2beWwplzKpfCPTSPr1M1
jWr33wqKkd3qLrJwywxJJs2jCM8Obe0a297VhBo=
-----END CERTIFICATE-----
