Certificate:
    Data:
        Version: 3 (0x2)
        Serial Number:
            90:8a:ce:3f:67:ac:6b:23
        Signature Algorithm: sha256WithRSAEncryption
        Issuer: CN = Jsign Root Certificate Authority 2022
        Validity
            Not Before: Nov 15 18:15:33 2022 GMT
            Not After : Nov 10 18:15:33 2042 GMT
        Subject: CN = Jsign Root Certificate Authority 2022
        Subject Public Key Info:
            Public Key Algorithm: rsaEncryption
                Public-Key: (4096 bit)
                Modulus:
                    00:a9:94:48:dc:5e:92:cb:50:af:5f:44:f3:5d:0f:
                    94:82:21:07:76:89:61:f5:ef:8b:ef:e4:ee:aa:b4:
                    a2:1c:2d:cb:df:91:10:c6:8e:c3:51:ce:e6:1c:bc:
                    17:4f:ca:76:59:46:5c:cb:59:38:ee:b6:14:ca:d6:
                    99:ed:c9:57:44:43:23:18:0c:83:27:59:86:a7:43:
                    0b:78:75:94:a7:92:0c:64:49:74:d2:3f:1d:46:b7:
                    ed:6b:07:c6:00:38:f6:20:e9:a6:f6:36:6c:3d:09:
                    f3:27:8a:e5:fc:cb:01:e7:58:7f:cf:5d:90:87:b3:
                    2d:9f:55:47:18:ce:fe:c9:57:54:af:45:d5:0d:a2:
                    64:c4:bf:a3:3e:18:40:59:1d:eb:cd:94:8e:23:9c:
                    39:69:b8:15:d9:cd:31:a8:92:5b:b1:3f:cb:df:8d:
                    af:05:0a:ba:2a:0d:50:bc:62:62:59:f0:0b:8f:fb:
                    29:03:7f:46:f7:83:fd:db:1a:0b:01:b5:7a:f0:10:
                    d6:06:7b:08:13:a8:d1:21:ff:a3:bb:b4:84:5f:bc:
                    41:54:50:4d:ea:75:71:e9:b6:af:fc:6e:5a:92:d0:
                    27:a0:5e:41:d1:b4:44:90:2d:ad:28:71:55:9e:d7:
                    22:c8:06:82:3e:57:df:d1:0e:92:33:be:3d:80:ab:
                    c5:8b:e9:be:b6:6b:a9:15:0e:79:53:d2:63:10:4c:
                    e5:89:f4:92:ba:79:4d:be:a0:b1:91:1f:1d:04:27:
                    d3:82:2f:56:67:ff:1b:ea:74:7d:e8:62:87:db:cc:
                    72:fb:39:fb:c5:94:b2:b8:1a:48:0a:61:58:d9:a6:
                    10:7e:cf:60:82:ec:f4:10:38:57:c6:8c:bb:98:3d:
                    ac:7f:e7:e7:7b:8d:0d:a7:49:16:88:51:d5:e3:a3:
                    d9:df:6a:11:99:61:31:54:50:e3:5e:5e:80:55:8a:
                    53:73:e1:45:0e:02:dc:9b:dc:2a:ab:78:e2:09:2d:
                    50:c7:e3:1b:7e:82:ea:27:90:d2:69:b7:69:92:33:
                    2c:aa:06:d6:49:d4:c2:17:ca:0c:cd:a0:27:df:41:
                    2c:67:08:13:3f:0f:33:d8:ec:a1:cf:89:00:c5:e5:
                    de:13:9d:21:9f:e4:a7:12:c7:59:ec:79:4f:9f:60:
                    0d:86:ad:fa:a8:8e:b5:55:56:38:63:0d:0c:40:11:
                    cc:5f:0e:a6:39:50:bc:4c:44:98:d8:0f:e2:59:fd:
                    e2:1e:1d:82:12:49:6d:4d:dc:80:49:85:bb:d1:e2:
                    77:4f:4c:c1:72:6a:03:4f:6f:22:fb:10:f8:e8:72:
                    fd:ad:62:7b:3b:52:dc:d0:71:30:0f:1f:30:da:4b:
                    6b:33:81
                Exponent: 65537 (0x10001)
        X509v3 extensions:
            X509v3 Subject Key Identifier: 
                DB:08:95:99:8E:61:5B:95:0B:07:43:CE:C2:D3:30:E2:03:29:03:3E
            X509v3 Authority Key Identifier: 
                keyid:DB:08:95:99:8E:61:5B:95:0B:07:43:CE:C2:D3:30:E2:03:29:03:3E

            X509v3 Basic Constraints: critical
                CA:TRUE
    Signature Algorithm: sha256WithRSAEncryption
         37:cf:24:69:59:00:64:95:41:11:8e:69:58:4e:ca:89:0f:ff:
         00:92:43:f0:ca:c4:05:d4:c7:f2:90:ee:f1:87:d7:d0:13:23:
         26:96:78:a9:77:c7:73:f2:fc:27:7b:fb:6b:f6:cb:1a:bb:3d:
         0a:ac:93:a9:fe:33:a3:7b:4f:34:52:7c:82:2a:c6:10:64:26:
         c0:28:a0:25:00:24:50:cd:41:4e:1b:32:f9:db:85:c2:00:9f:
         fc:34:8b:96:da:ec:0e:52:43:6a:f9:0e:9d:be:9f:88:a5:54:
         c7:f5:99:89:e4:78:43:0e:f9:ab:09:86:48:6a:35:53:10:2f:
         71:bb:d0:2d:7e:c8:80:d0:68:15:7d:2f:89:59:01:2f:b9:d3:
         04:be:c7:f6:52:e4:72:bf:68:e1:b9:45:95:b0:9f:b5:0f:ef:
         5c:5a:c0:35:7b:bf:75:6b:f8:7f:79:98:f8:fc:0d:ee:fc:48:
         0a:a4:09:c5:e5:26:db:d7:8c:37:68:04:4f:2b:ca:73:03:4b:
         41:1a:b5:79:d1:8f:16:60:6f:ba:ce:7c:e7:89:19:79:ff:00:
         5d:4f:33:8a:d0:cb:b7:c9:ad:c5:ad:64:7b:06:e5:27:17:25:
         a2:6e:d6:35:8a:3c:65:c4:25:ad:c1:4f:0e:01:25:12:bf:f1:
         f7:df:37:95:d6:ed:17:c5:2c:d6:15:bc:3f:89:18:42:45:e2:
         99:12:d9:65:e4:81:a7:c5:37:bc:24:61:b8:fd:03:28:c7:4f:
         80:21:27:29:19:78:85:81:32:59:55:ee:40:20:ef:7b:90:4a:
         43:70:d7:c5:63:a6:a2:16:5f:35:4b:21:c7:60:8b:53:be:f0:
         40:20:95:85:04:c1:42:00:97:60:a7:dd:ff:4c:00:2c:20:d7:
         62:7e:f0:e5:04:73:9e:ce:2d:fa:9e:21:9f:c9:3d:b2:08:bd:
         2c:36:e5:16:3f:0f:d2:aa:3f:f3:ad:11:73:85:fb:d1:52:a9:
         86:7d:c5:a7:47:c9:46:86:7f:f3:a8:a5:43:33:d8:c4:d0:f2:
         1a:e6:04:13:11:ae:ae:12:13:fc:64:e1:43:6d:3e:03:06:a8:
         c7:81:28:a9:c6:5d:05:e0:97:5d:fd:dc:34:20:e8:4b:e3:a5:
         da:45:cb:66:67:cd:4e:97:52:06:52:ce:c0:b5:72:53:73:e8:
         23:85:23:1b:fb:91:33:3f:2f:74:01:25:1f:45:fb:0e:54:81:
         5a:1f:74:ae:89:db:3c:e8:6c:08:e7:27:7e:72:e3:40:cd:34:
         89:57:94:bf:9b:b8:83:4b:d2:62:8b:c1:c1:24:cf:a7:46:80:
         05:a2:36:c5:06:c8:d4:06
-----BEGIN CERTIFICATE-----
MIIFNjCCAx6gAwIBAgIJAJCKzj9nrGsjMA0GCSqGSIb3DQEBCwUAMDAxLjAsBgNV
BAMMJUpzaWduIFJvb3QgQ2VydGlmaWNhdGUgQXV0aG9yaXR5IDIwMjIwHhcNMjIx
MTE1MTgxNTMzWhcNNDIxMTEwMTgxNTMzWjAwMS4wLAYDVQQDDCVKc2lnbiBSb290
IENlcnRpZmljYXRlIEF1dGhvcml0eSAyMDIyMIICIjANBgkqhkiG9w0BAQEFAAOC
Ag8AMIICCgKCAgEAqZRI3F6Sy1CvX0TzXQ+UgiEHdolh9e+L7+TuqrSiHC3L35EQ
xo7DUc7mHLwXT8p2WUZcy1k47rYUytaZ7clXREMjGAyDJ1mGp0MLeHWUp5IMZEl0
0j8dRrftawfGADj2IOmm9jZsPQnzJ4rl/MsB51h/z12Qh7Mtn1VHGM7+yVdUr0XV
DaJkxL+jPhhAWR3rzZSOI5w5abgV2c0xqJJbsT/L342vBQq6Kg1QvGJiWfALj/sp
A39G94P92xoLAbV68BDWBnsIE6jRIf+ju7SEX7xBVFBN6nVx6bav/G5aktAnoF5B
0bREkC2tKHFVntciyAaCPlff0Q6SM749gKvFi+m+tmupFQ55U9JjEEzlifSSunlN
vqCxkR8dBCfTgi9WZ/8b6nR96GKH28xy+zn7xZSyuBpICmFY2aYQfs9gguz0EDhX
xoy7mD2sf+fne40Np0kWiFHV46PZ32oRmWExVFDjXl6AVYpTc+FFDgLcm9wqq3ji
CS1Qx+MbfoLqJ5DSabdpkjMsqgbWSdTCF8oMzaAn30EsZwgTPw8z2Oyhz4kAxeXe
E50hn+SnEsdZ7HlPn2ANhq36qI61VVY4Yw0MQBHMXw6mOVC8TESY2A/iWf3iHh2C
EkltTdyASYW70eJ3T0zBcmoDT28i+xD46HL9rWJ7O1Lc0HEwDx8w2ktrM4ECAwEA
AaNTMFEwHQYDVR0OBBYEFNsIlZmOYVuVCwdDzsLTMOIDKQM+MB8GA1UdIwQYMBaA
FNsIlZmOYVuVCwdDzsLTMOIDKQM+MA8GA1UdEwEB/wQFMAMBAf8wDQYJKoZIhvcN
AQELBQADggIBADfPJGlZAGSVQRGOaVhOyokP/wCSQ/DKxAXUx/KQ7vGH19ATIyaW
eKl3x3Py/Cd7+2v2yxq7PQqsk6n+M6N7TzRSfIIqxhBkJsAooCUAJFDNQU4bMvnb
hcIAn/w0i5ba7A5SQ2r5Dp2+n4ilVMf1mYnkeEMO+asJhkhqNVMQL3G70C1+yIDQ
aBV9L4lZAS+50wS+x/ZS5HK/aOG5RZWwn7UP71xawDV7v3Vr+H95mPj8De78SAqk
CcXlJtvXjDdoBE8rynMDS0EatXnRjxZgb7rOfOeJGXn/AF1PM4rQy7fJrcWtZHsG
5ScXJaJu1jWKPGXEJa3BTw4BJRK/8fffN5XW7RfFLNYVvD+JGEJF4pkS2WXkgafF
N7wkYbj9AyjHT4AhJykZeIWBMllV7kAg73uQSkNw18VjpqIWXzVLIcdgi1O+8EAg
lYUEwUIAl2Cn3f9MACwg12J+8OUEc57OLfqeIZ/JPbIIvSw25RY/D9KqP/OtEXOF
+9FSqYZ9xadHyUaGf/OopUMz2MTQ8hrmBBMRrq4SE/xk4UNtPgMGqMeBKKnGXQXg
l1393DQg6EvjpdpFy2ZnzU6XUgZSzsC1clNz6COFIxv7kTM/L3QBJR9F+w5UgVof
dK6J2zzobAjnJ35y40DNNIlXlL+buINL0mKLwcEkz6dGgAWiNsUGyNQG
-----END CERTIFICATE-----
