Certificate:
    Data:
        Version: 3 (0x2)
        Serial Number:
            76:f5:40:2f:79:37:bf:22:c6:d2:d7:b8:98:ae:bb:1c:21:60:58:a6
        Signature Algorithm: sha256WithRSAEncryption
        Issuer: CN = Jsign Code Signing Test Certificate 2025 (self-signed)
        Validity
            Not Before: Sep 22 10:09:07 2025 GMT
            Not After : Sep 22 10:09:07 2045 GMT
        Subject: CN = Jsign Code Signing Test Certificate 2025 (self-signed)
        Subject Public Key Info:
            Public Key Algorithm: rsaEncryption
                Public-Key: (2048 bit)
                Modulus:
                    00:a6:90:52:e5:90:ac:79:c7:ca:39:1d:87:05:9d:
                    a9:3f:96:d2:0f:6d:ea:f4:e7:42:65:38:cb:f5:e9:
                    83:9c:2c:17:53:51:32:1d:ae:8c:b8:fb:3d:0c:7e:
                    fa:5e:df:64:9c:77:bc:2d:49:27:5f:d1:33:a0:95:
                    14:16:2e:6b:32:f0:7c:38:e5:e3:f3:63:e2:78:25:
                    8a:df:a2:8c:e2:6d:5e:70:71:48:62:29:29:94:da:
                    39:1c:3d:69:87:0c:22:f1:d1:8b:16:45:aa:95:48:
                    7c:0d:08:ee:08:c4:07:f5:a4:23:a1:ea:f9:e3:ee:
                    d1:91:80:36:8a:e0:80:9c:7f:40:fe:48:84:13:f3:
                    29:29:af:fb:cd:dc:40:0f:79:e0:93:7c:12:37:72:
                    b8:cc:d5:b3:64:aa:3b:28:14:6c:a3:5a:8b:88:e5:
                    9a:2b:44:53:22:81:ff:6f:64:f6:9a:3e:f7:da:49:
                    dc:a5:10:7b:e0:47:96:2d:df:c8:41:4d:cd:47:4f:
                    f6:70:7a:15:4c:3e:f6:4a:38:f3:f0:b4:ab:ba:8a:
                    7a:b2:a4:9d:85:b7:ca:c6:70:0f:bd:16:31:de:34:
                    6b:fe:14:d5:c0:01:48:56:d5:bf:22:15:01:ae:1d:
                    c5:1a:1c:a3:9d:86:92:df:b1:d4:68:4e:0b:3b:4b:
                    b5:0f
                Exponent: 65537 (0x10001)
        X509v3 extensions:
            X509v3 Subject Key Identifier: 
                12:C4:8A:0E:6F:16:47:F1:B2:1F:CE:7B:2F:30:E6:27:28:31:34:93
            X509v3 Authority Key Identifier: 
                12:C4:8A:0E:6F:16:47:F1:B2:1F:CE:7B:2F:30:E6:27:28:31:34:93
            X509v3 Basic Constraints: critical
                CA:TRUE
    Signature Algorithm: sha256WithRSAEncryption
    Signature Value:
        26:f4:dd:db:31:5e:ef:59:91:0f:30:f9:af:86:57:10:72:5f:
        fa:50:50:d1:3c:9e:85:dd:aa:38:50:20:91:7f:67:93:de:e6:
        b8:92:58:cf:79:bf:49:05:7e:fa:78:99:7b:86:bb:a2:79:cb:
        f2:35:e0:8f:2a:dc:fe:be:7a:59:57:0d:fc:d8:d8:17:b4:78:
        96:0e:f3:35:1c:05:ce:2b:aa:37:46:9f:eb:5e:6d:46:8a:a3:
        5d:72:dd:dd:0f:55:66:91:73:84:2a:39:59:fc:8c:f0:35:a7:
        84:ad:d1:6e:90:d1:92:49:e1:b9:96:0d:cf:7e:dc:77:29:f0:
        1e:bd:6c:f2:b4:79:5a:0b:98:54:bc:cc:19:7a:ee:cc:29:6b:
        d8:1d:c8:e9:6c:87:e2:e5:df:80:5a:99:dc:20:7f:ef:22:ee:
        cd:44:53:b1:8c:7c:80:d7:a9:cb:43:ff:8b:ae:23:e5:9f:db:
        d0:ca:f9:69:87:f4:8d:d9:aa:00:6e:90:05:d4:53:3c:3b:e8:
        e0:53:21:89:aa:13:34:68:7a:cc:fa:3c:06:68:5e:ee:ae:24:
        0e:9f:d9:6f:e7:bb:3b:a9:4e:f6:1e:6a:28:b1:e4:84:fb:9e:
        50:3f:ce:b8:04:6d:73:71:27:f0:86:87:78:38:bc:fb:05:a7:
        72:1e:3d:9c
-----BEGIN CERTIFICATE-----
MIIDYzCCAkugAwIBAgIUdvVAL3k3vyLG0te4mK67HCFgWKYwDQYJKoZIhvcNAQEL
BQAwQTE/MD0GA1UEAww2SnNpZ24gQ29kZSBTaWduaW5nIFRlc3QgQ2VydGlmaWNh
dGUgMjAyNSAoc2VsZi1zaWduZWQpMB4XDTI1MDkyMjEwMDkwN1oXDTQ1MDkyMjEw
MDkwN1owQTE/MD0GA1UEAww2SnNpZ24gQ29kZSBTaWduaW5nIFRlc3QgQ2VydGlm
aWNhdGUgMjAyNSAoc2VsZi1zaWduZWQpMIIBIjANBgkqhkiG9w0BAQEFAAOCAQ8A
MIIBCgKCAQEAppBS5ZCsecfKOR2HBZ2pP5bSD23q9OdCZTjL9emDnCwXU1EyHa6M
uPs9DH76Xt9knHe8LUknX9EzoJUUFi5rMvB8OOXj82PieCWK36KM4m1ecHFIYikp
lNo5HD1phwwi8dGLFkWqlUh8DQjuCMQH9aQjoer54+7RkYA2iuCAnH9A/kiEE/Mp
Ka/7zdxAD3ngk3wSN3K4zNWzZKo7KBRso1qLiOWaK0RTIoH/b2T2mj732kncpRB7
4EeWLd/IQU3NR0/2cHoVTD72Sjjz8LSruop6sqSdhbfKxnAPvRYx3jRr/hTVwAFI
VtW/IhUBrh3FGhyjnYaS37HUaE4LO0u1DwIDAQABo1MwUTAdBgNVHQ4EFgQUEsSK
Dm8WR/GyH857LzDmJygxNJMwHwYDVR0jBBgwFoAUEsSKDm8WR/GyH857LzDmJygx
NJMwDwYDVR0TAQH/BAUwAwEB/zANBgkqhkiG9w0BAQsFAAOCAQEAJvTd2zFe71mR
DzD5r4ZXEHJf+lBQ0Tyehd2qOFAgkX9nk97muJJYz3m/SQV++niZe4a7onnL8jXg
jyrc/r56WVcN/NjYF7R4lg7zNRwFziuqN0af615tRoqjXXLd3Q9VZpFzhCo5WfyM
8DWnhK3RbpDRkknhuZYNz37cdynwHr1s8rR5WguYVLzMGXruzClr2B3I6WyH4uXf
gFqZ3CB/7yLuzURTsYx8gNepy0P/i64j5Z/b0Mr5aYf0jdmqAG6QBdRTPDvo4FMh
iaoTNGh6zPo8Bmhe7q4kDp/Zb+e7O6lO9h5qKLHkhPueUD/OuARtc3En8IaHeDi8
+wWnch49nA==
-----END CERTIFICATE-----
