Certificate:
    Data:
        Version: 3 (0x2)
        Serial Number:
            7d:87:ba:69:12:49:d7:0c:cc:df:5d:1b:24:78:56:fd:64:10:b2:08
        Signature Algorithm: sha256WithRSAEncryption
        Issuer: CN = Jsign Root Certificate Authority
        Validity
            Not Before: Oct 24 21:19:21 2021 GMT
            Not After : Oct 19 21:19:21 2041 GMT
        Subject: CN = Jsign Code Signing CA
        Subject Public Key Info:
            Public Key Algorithm: rsaEncryption
                RSA Public-Key: (2048 bit)
                Modulus:
                    00:a0:39:d9:5a:3c:a1:2a:c3:0e:27:29:1a:d7:ba:
                    15:d0:5c:fd:15:60:48:df:8a:99:79:b6:6a:9b:37:
                    05:4d:23:ca:e8:96:2c:01:4d:26:e0:ef:e9:ea:a1:
                    00:47:19:2e:85:0e:20:0a:4d:e9:f6:23:c7:6d:c8:
                    c5:2c:bc:f0:ac:8f:a3:b0:6d:cc:32:2d:eb:0d:ea:
                    f6:e6:0f:3b:c5:34:9f:78:51:0b:30:13:15:f6:94:
                    72:93:c0:3a:6e:42:ac:1b:57:e2:8c:f2:c8:61:1f:
                    21:a8:db:58:21:8d:e7:4c:68:05:d5:11:1e:56:1b:
                    c1:58:36:95:98:ec:a9:e4:f4:40:51:4a:27:3c:c3:
                    31:50:25:4c:37:14:6b:e2:e2:03:28:01:22:19:0c:
                    1c:a8:d0:ca:b5:20:0d:c8:54:e6:00:d7:75:fe:ec:
                    d3:0f:4f:4c:5f:93:9f:55:8e:9e:0e:6a:de:c4:48:
                    8b:3b:ca:5b:ab:d1:17:07:77:ae:1b:d7:c5:d3:60:
                    00:4a:5b:db:57:01:f9:85:8e:22:49:ba:74:ec:6b:
                    32:27:9e:76:d1:ec:53:79:9b:a4:0f:71:c9:e4:ee:
                    0b:4f:0c:6b:0b:e3:d0:56:c6:78:76:69:d0:d1:eb:
                    66:f5:b9:69:9c:00:24:2d:22:76:b6:25:8f:49:96:
                    0b:3d
                Exponent: 65537 (0x10001)
        X509v3 extensions:
            X509v3 Basic Constraints: 
                CA:TRUE, pathlen:0
            X509v3 Key Usage: 
                Certificate Sign, CRL Sign
            X509v3 Extended Key Usage: 
                Code Signing
            X509v3 Subject Key Identifier: 
                04:D0:EB:70:91:45:5E:42:1E:03:27:49:44:4D:4B:74:B3:35:5D:02
            X509v3 Authority Key Identifier: 
                keyid:14:75:C5:84:5C:E3:FA:88:47:BF:C2:DF:27:00:AA:07:89:DA:1C:4A

    Signature Algorithm: sha256WithRSAEncryption
         ab:1a:2c:55:31:34:5e:8f:6c:21:0e:b2:a5:e6:4d:d5:7e:99:
         4b:f2:87:45:15:f4:8c:21:5a:df:bb:f7:35:c0:5d:de:a9:bd:
         de:91:19:3f:7d:46:8d:f4:89:a4:4b:b8:af:fd:06:52:52:88:
         8e:3e:c7:d3:f5:ec:10:3a:09:4e:2a:12:f3:d5:35:c0:88:9e:
         7c:1b:b7:2b:25:8c:08:80:b5:b7:fb:4e:f7:7e:3b:e8:6b:6e:
         b3:af:5b:29:ae:29:28:ea:7c:c2:33:bc:64:9f:c9:87:1d:cc:
         23:b6:ad:67:68:c5:42:07:36:f7:37:12:83:d6:f3:f2:5a:5a:
         ba:b0:eb:60:8f:28:c7:65:44:ca:51:1a:10:7d:64:66:ec:26:
         66:e5:0a:8e:1a:8a:0a:b5:d5:8b:db:25:8f:0d:81:45:dd:71:
         6b:f0:bf:2e:3f:40:e1:bc:ca:f6:9c:6a:4f:93:d8:4a:ac:72:
         e9:b0:a5:60:f9:65:76:4a:cb:47:10:00:36:f8:85:a7:e5:6e:
         99:a7:a8:af:06:b8:fd:f0:30:e3:0f:3c:1f:9d:5c:8f:dd:e0:
         2f:87:1b:f3:a8:a4:a4:8e:1b:6d:2d:9f:1d:72:21:bf:48:53:
         cc:31:75:1e:35:50:6d:da:a0:09:46:2a:e8:42:08:9e:30:ef:
         3e:74:ff:a1
-----BEGIN CERTIFICATE-----
MIIDTjCCAjagAwIBAgIUfYe6aRJJ1wzM310bJHhW/WQQsggwDQYJKoZIhvcNAQEL
BQAwKzEpMCcGA1UEAwwgSnNpZ24gUm9vdCBDZXJ0aWZpY2F0ZSBBdXRob3JpdHkw
HhcNMjExMDI0MjExOTIxWhcNNDExMDE5MjExOTIxWjAgMR4wHAYDVQQDDBVKc2ln
biBDb2RlIFNpZ25pbmcgQ0EwggEiMA0GCSqGSIb3DQEBAQUAA4IBDwAwggEKAoIB
AQCgOdlaPKEqww4nKRrXuhXQXP0VYEjfipl5tmqbNwVNI8roliwBTSbg7+nqoQBH
GS6FDiAKTen2I8dtyMUsvPCsj6OwbcwyLesN6vbmDzvFNJ94UQswExX2lHKTwDpu
QqwbV+KM8shhHyGo21ghjedMaAXVER5WG8FYNpWY7Knk9EBRSic8wzFQJUw3FGvi
4gMoASIZDByo0Mq1IA3IVOYA13X+7NMPT0xfk59Vjp4Oat7ESIs7ylur0RcHd64b
18XTYABKW9tXAfmFjiJJunTsazInnnbR7FN5m6QPccnk7gtPDGsL49BWxnh2adDR
62b1uWmcACQtIna2JY9Jlgs9AgMBAAGjdTBzMA8GA1UdEwQIMAYBAf8CAQAwCwYD
VR0PBAQDAgEGMBMGA1UdJQQMMAoGCCsGAQUFBwMDMB0GA1UdDgQWBBQE0OtwkUVe
Qh4DJ0lETUt0szVdAjAfBgNVHSMEGDAWgBQUdcWEXOP6iEe/wt8nAKoHidocSjAN
BgkqhkiG9w0BAQsFAAOCAQEAqxosVTE0Xo9sIQ6ypeZN1X6ZS/KHRRX0jCFa37v3
NcBd3qm93pEZP31GjfSJpEu4r/0GUlKIjj7H0/XsEDoJTioS89U1wIiefBu3KyWM
CIC1t/tO93476Gtus69bKa4pKOp8wjO8ZJ/Jhx3MI7atZ2jFQgc29zcSg9bz8lpa
urDrYI8ox2VEylEaEH1kZuwmZuUKjhqKCrXVi9sljw2BRd1xa/C/Lj9A4bzK9pxq
T5PYSqxy6bClYPlldkrLRxAANviFp+Vumaeorwa4/fAw4w88H51cj93gL4cb86ik
pI4bbS2fHXIhv0hTzDF1HjVQbdqgCUYq6EIInjDvPnT/oQ==
-----END CERTIFICATE-----
