Certificate:
    Data:
        Version: 3 (0x2)
        Serial Number:
            45:a2:f7:22:f1:c2:75:a3:d5:dc:c6:82:29:00:df:25:80:d6:99:73
        Signature Algorithm: sha256WithRSAEncryption
        Issuer: CN = Jsign Root Certificate Authority 2024
        Validity
            Not Before: May 10 13:08:20 2024 GMT
            Not After : May 10 13:08:20 2044 GMT
        Subject: CN = Jsign Code Signing CA 2024
        Subject Public Key Info:
            Public Key Algorithm: rsaEncryption
                Public-Key: (2048 bit)
                Modulus:
                    00:bd:fd:41:4a:ad:82:60:ee:77:80:00:ba:a7:d5:
                    fc:0e:6d:47:7b:3c:e7:38:e6:4a:a9:c6:e5:87:47:
                    b5:75:49:54:de:94:27:85:a2:e4:5b:33:23:1e:26:
                    1a:be:43:ea:05:c8:7d:57:a8:3c:b4:2a:e3:e6:43:
                    9c:8d:5f:76:41:f4:a6:44:ca:71:0f:80:c0:b2:a8:
                    6e:31:2b:7d:87:8c:71:46:50:20:c2:17:1e:9c:4b:
                    55:43:65:5d:74:9d:96:49:56:7f:0e:43:1e:1d:63:
                    26:5d:32:e1:73:3f:d5:86:3d:02:3f:8b:dc:3a:c5:
                    c9:2f:e2:ed:57:98:1b:be:8c:3a:00:60:fd:c0:04:
                    04:62:c6:89:a7:78:15:f1:ae:4f:6d:19:c2:44:36:
                    da:77:c0:47:d0:74:97:62:25:3f:c1:10:c2:92:c6:
                    34:7a:5b:3a:da:74:50:cb:e0:62:a7:14:e1:ea:8b:
                    1e:84:70:92:d9:2c:3e:85:f1:6b:b3:1b:03:0a:78:
                    0b:1b:df:58:5b:55:c1:db:05:f1:02:56:f2:28:06:
                    e6:d7:2c:01:43:c7:24:1d:7c:e5:d9:b7:5e:10:bc:
                    4f:4c:2a:c2:c7:1f:2f:cb:28:bd:93:34:e3:d4:f0:
                    16:8d:3a:8d:5f:f8:ac:ed:2e:14:1c:9b:1c:20:63:
                    60:4b
                Exponent: 65537 (0x10001)
        X509v3 extensions:
            X509v3 Basic Constraints: 
                CA:TRUE, pathlen:0
            X509v3 Key Usage: 
                Certificate Sign, CRL Sign
            X509v3 Extended Key Usage: 
                Code Signing
            X509v3 Subject Key Identifier: 
                E2:71:4A:A3:53:E9:58:2A:7B:94:44:3D:3B:AE:8A:01:D4:E5:04:FD
            X509v3 Authority Key Identifier: 
                1C:FF:2E:2C:7E:DC:7E:8C:9E:D4:E8:A7:FA:2D:E6:B5:75:AB:96:11
            Authority Information Access: 
                CA Issuers - URI:http://raw.githubusercontent.com/ebourg/jsign/master/jsign-core/src/test/resources/keystores/jsign-root-ca.cer
    Signature Algorithm: sha256WithRSAEncryption
    Signature Value:
        28:03:e4:51:e8:4d:2f:88:ec:38:67:ec:67:a5:2c:85:4b:b6:
        9a:f7:d0:30:ea:81:18:32:53:bd:c3:e3:c5:e3:fc:53:0e:f1:
        91:bc:c9:a3:6d:1b:93:15:ba:93:32:cc:65:bb:19:08:fd:10:
        86:3e:ce:1c:b3:67:8e:3d:0f:11:49:35:0e:4b:9f:14:e0:35:
        e7:5a:18:b4:f4:63:f2:b0:8f:e3:55:88:b2:b6:04:ab:7e:1b:
        52:16:8f:81:2d:ac:88:d8:cd:95:88:fb:41:6b:6e:55:6a:cf:
        16:9c:2a:26:fb:88:ab:37:e8:08:16:d2:4d:45:4b:a3:8a:1e:
        77:66:d8:9f:2a:8f:cf:88:2f:24:ca:72:a2:79:6b:f3:1f:c7:
        b3:24:e3:28:3f:13:86:e1:0b:ae:8a:cf:2f:11:55:7b:70:59:
        1d:55:bc:39:a1:4f:17:f0:9d:13:7b:14:47:5e:5c:bf:9a:95:
        6e:1c:50:1c:07:8c:f9:a4:26:9a:47:0e:b7:83:54:9a:04:99:
        6a:38:0a:32:33:45:4d:08:0c:93:b1:41:e7:5a:db:14:f5:a8:
        a5:17:0d:43:86:3f:69:55:b3:85:6d:17:e3:29:60:f1:3c:e1:
        eb:47:11:b3:d1:eb:99:58:78:69:35:31:38:62:05:0c:0d:a1:
        a1:c8:f0:bc:fa:0d:35:5f:57:b0:c7:5b:68:61:d5:e6:c8:78:
        02:cc:99:53:5f:e2:d8:ec:77:9d:84:86:b3:50:d4:ec:31:50:
        e7:0c:8c:02:e2:4e:10:b0:8c:3e:5d:5a:55:1a:e2:73:78:c9:
        ca:62:f1:8d:cb:67:98:7b:a3:6c:15:d0:43:f6:91:d0:22:84:
        54:79:d3:cd:e0:7a:ce:e3:8a:6c:22:aa:9a:fe:4c:a0:d2:ca:
        29:2d:49:a9:6d:50:88:26:e9:21:83:f0:65:d0:54:02:46:60:
        ab:6c:c4:2d:6f:03:d4:4a:b9:d9:89:d8:6d:08:03:08:93:bc:
        8d:97:a7:64:c0:33:3d:be:b9:e4:17:a0:3f:fd:2c:20:8a:2a:
        18:7b:84:dd:cb:66:ac:f9:88:c2:48:07:e8:f1:86:63:97:65:
        d8:83:1d:a3:20:fe:68:f2:b5:ee:ff:8d:e1:b7:08:91:0b:f4:
        f6:5b:52:bc:2e:c8:ba:99:f2:ea:61:0b:08:e1:7b:16:cf:8b:
        16:d7:16:c9:c0:34:fc:cb:cd:dc:5a:02:1d:c5:03:85:2d:07:
        70:ab:73:ed:4a:b9:f3:ce:b6:11:98:03:97:9a:66:63:b2:31:
        bc:5a:0a:5c:13:5e:58:fc:51:16:29:b3:47:ef:1b:ca:42:31:
        fa:de:67:ac:4e:ba:0a:a8
-----BEGIN CERTIFICATE-----
MIIE6TCCAtGgAwIBAgIURaL3IvHCdaPV3MaCKQDfJYDWmXMwDQYJKoZIhvcNAQEL
BQAwMDEuMCwGA1UEAwwlSnNpZ24gUm9vdCBDZXJ0aWZpY2F0ZSBBdXRob3JpdHkg
MjAyNDAeFw0yNDA1MTAxMzA4MjBaFw00NDA1MTAxMzA4MjBaMCUxIzAhBgNVBAMM
GkpzaWduIENvZGUgU2lnbmluZyBDQSAyMDI0MIIBIjANBgkqhkiG9w0BAQEFAAOC
AQ8AMIIBCgKCAQEAvf1BSq2CYO53gAC6p9X8Dm1HezznOOZKqcblh0e1dUlU3pQn
haLkWzMjHiYavkPqBch9V6g8tCrj5kOcjV92QfSmRMpxD4DAsqhuMSt9h4xxRlAg
whcenEtVQ2VddJ2WSVZ/DkMeHWMmXTLhcz/Vhj0CP4vcOsXJL+LtV5gbvow6AGD9
wAQEYsaJp3gV8a5PbRnCRDbad8BH0HSXYiU/wRDCksY0els62nRQy+BipxTh6ose
hHCS2Sw+hfFrsxsDCngLG99YW1XB2wXxAlbyKAbm1ywBQ8ckHXzl2bdeELxPTCrC
xx8vyyi9kzTj1PAWjTqNX/is7S4UHJscIGNgSwIDAQABo4IBBDCCAQAwDwYDVR0T
BAgwBgEB/wIBADALBgNVHQ8EBAMCAQYwEwYDVR0lBAwwCgYIKwYBBQUHAwMwHQYD
VR0OBBYEFOJxSqNT6Vgqe5REPTuuigHU5QT9MB8GA1UdIwQYMBaAFBz/Lix+3H6M
ntTop/ot5rV1q5YRMIGKBggrBgEFBQcBAQR+MHwwegYIKwYBBQUHMAKGbmh0dHA6
Ly9yYXcuZ2l0aHVidXNlcmNvbnRlbnQuY29tL2Vib3VyZy9qc2lnbi9tYXN0ZXIv
anNpZ24tY29yZS9zcmMvdGVzdC9yZXNvdXJjZXMva2V5c3RvcmVzL2pzaWduLXJv
b3QtY2EuY2VyMA0GCSqGSIb3DQEBCwUAA4ICAQAoA+RR6E0viOw4Z+xnpSyFS7aa
99Aw6oEYMlO9w+PF4/xTDvGRvMmjbRuTFbqTMsxluxkI/RCGPs4cs2eOPQ8RSTUO
S58U4DXnWhi09GPysI/jVYiytgSrfhtSFo+BLayI2M2ViPtBa25Vas8WnCom+4ir
N+gIFtJNRUujih53ZtifKo/PiC8kynKieWvzH8ezJOMoPxOG4Quuis8vEVV7cFkd
Vbw5oU8X8J0TexRHXly/mpVuHFAcB4z5pCaaRw63g1SaBJlqOAoyM0VNCAyTsUHn
WtsU9ailFw1Dhj9pVbOFbRfjKWDxPOHrRxGz0euZWHhpNTE4YgUMDaGhyPC8+g01
X1ewx1toYdXmyHgCzJlTX+LY7HedhIazUNTsMVDnDIwC4k4QsIw+XVpVGuJzeMnK
YvGNy2eYe6NsFdBD9pHQIoRUedPN4HrO44psIqqa/kyg0sopLUmpbVCIJukhg/Bl
0FQCRmCrbMQtbwPUSrnZidhtCAMIk7yNl6dkwDM9vrnkF6A//SwgiioYe4Tdy2as
+YjCSAfo8YZjl2XYgx2jIP5o8rXu/43htwiRC/T2W1K8Lsi6mfLqYQsI4XsWz4sW
1xbJwDT8y83cWgIdxQOFLQdwq3PtSrnzzrYRmAOXmmZjsjG8WgpcE15Y/FEWKbNH
7xvKQjH63mesTroKqA==
-----END CERTIFICATE-----
Certificate:
    Data:
        Version: 3 (0x2)
        Serial Number:
            42:d3:07:fc:8d:5a:1e:03:f7:62:f6:06:31:b4:fd:e1:cc:73:d5:07
        Signature Algorithm: sha256WithRSAEncryption
        Issuer: CN = Jsign Root Certificate Authority 2024
        Validity
            Not Before: May 10 13:08:19 2024 GMT
            Not After : May 10 13:08:19 2044 GMT
        Subject: CN = Jsign Root Certificate Authority 2024
        Subject Public Key Info:
            Public Key Algorithm: rsaEncryption
                Public-Key: (4096 bit)
                Modulus:
                    00:b1:17:70:b3:20:55:29:49:32:7b:49:43:11:82:
                    36:6a:ac:78:9c:be:0f:fc:fe:97:28:0c:d9:69:71:
                    2c:5b:1a:e3:56:8f:00:16:f5:3b:95:b8:da:7e:ac:
                    36:8a:3e:18:1e:1f:92:46:94:9c:2a:b4:ad:d2:7b:
                    b3:fe:d2:ba:42:2d:f4:ec:ff:b1:2b:81:26:49:bd:
                    26:0a:34:ae:60:17:70:ab:62:9b:3a:84:2d:c7:d8:
                    0d:3d:29:5f:4c:2c:cb:5d:c0:b2:81:24:0e:18:1c:
                    af:dd:07:52:90:be:1c:51:24:44:c2:2f:1c:68:64:
                    fa:0f:3c:b9:1d:73:d4:81:3b:21:cc:1e:39:a1:4d:
                    e2:61:17:6c:ae:f3:c8:3a:ce:6a:de:d8:83:52:db:
                    b9:c6:55:9b:82:50:b1:4b:6d:bd:37:32:42:f3:6b:
                    9c:d0:a2:9d:a4:19:e1:79:7a:84:a4:b7:f8:24:59:
                    fa:8e:53:8a:af:22:f1:90:16:8d:ad:c5:98:e4:70:
                    44:48:92:ce:39:ca:89:a3:eb:5f:2d:c2:9b:f5:50:
                    4c:11:bf:3f:db:57:81:98:6c:dd:bc:c3:6a:3b:16:
                    91:56:22:06:fb:55:42:c0:c9:43:37:7c:ed:3a:95:
                    35:e0:db:6d:3d:ac:f5:ee:a4:f2:16:dc:0e:07:63:
                    4c:23:9d:95:5c:68:fc:22:22:68:3b:f1:2a:bc:a5:
                    1e:5f:5d:84:3f:ef:45:10:4d:e4:50:7f:38:9d:85:
                    f6:27:ee:cf:81:5d:9f:3f:88:36:7f:b1:de:ab:cb:
                    75:c3:13:f1:39:56:83:06:55:2b:db:8c:26:0a:fe:
                    8c:f8:3c:4b:be:0c:ae:4e:1d:92:cc:a6:74:1c:6b:
                    0f:f6:d0:40:d2:6b:9f:45:c9:09:15:6c:14:f3:f0:
                    99:e0:15:84:c9:75:90:14:d2:24:49:76:a9:3f:28:
                    ec:11:ff:e5:b8:00:b2:e8:33:d9:12:a7:67:ee:a2:
                    bc:ee:3c:cb:16:ec:c9:d2:2b:27:e1:57:46:16:02:
                    65:ed:80:fc:19:ad:83:83:ed:0f:7d:b9:38:b7:36:
                    a6:8e:bc:7e:d3:a6:2a:21:eb:42:72:b8:f1:ef:22:
                    77:20:8c:c1:03:c8:de:7c:b0:2d:6d:64:a1:91:34:
                    a4:0d:48:f8:dd:ea:c8:63:74:9a:6e:9a:e5:78:4b:
                    6d:90:46:8a:4c:c0:8d:e1:1d:46:01:bd:c2:3f:dd:
                    07:72:3e:8a:7f:df:6a:71:49:4a:b7:41:83:d9:f6:
                    32:20:66:77:19:d7:73:fb:53:7b:0f:50:bd:b7:4b:
                    b2:98:99:c1:54:6f:b6:0f:c5:63:2b:de:71:3f:de:
                    20:af:b1
                Exponent: 65537 (0x10001)
        X509v3 extensions:
            X509v3 Subject Key Identifier: 
                1C:FF:2E:2C:7E:DC:7E:8C:9E:D4:E8:A7:FA:2D:E6:B5:75:AB:96:11
            X509v3 Authority Key Identifier: 
                1C:FF:2E:2C:7E:DC:7E:8C:9E:D4:E8:A7:FA:2D:E6:B5:75:AB:96:11
            X509v3 Basic Constraints: critical
                CA:TRUE
    Signature Algorithm: sha256WithRSAEncryption
    Signature Value:
        a0:1b:a0:98:16:49:fc:81:28:3b:13:13:02:e9:ea:40:b6:1f:
        eb:11:ca:0a:f4:e4:09:cb:99:d4:e3:e3:c2:fc:40:8b:5f:24:
        d4:fe:34:13:c0:c4:49:97:58:b3:f4:ae:7a:a7:21:c0:5e:2c:
        d7:eb:fd:6b:f0:35:94:6a:00:59:85:58:54:09:18:50:db:f5:
        a2:38:6f:71:b4:b5:60:de:5a:ef:e3:4e:ba:ce:1e:ae:d3:89:
        f6:02:b5:0e:89:92:f8:9e:05:39:4e:eb:01:15:74:f0:e7:2a:
        ec:5b:38:75:c2:12:8a:bd:ed:55:be:b4:73:41:55:cf:28:63:
        bf:64:2d:18:d1:c2:e8:66:b7:a0:a4:14:24:d8:83:2c:3b:82:
        3e:e8:ae:5d:0c:8b:4e:6f:d3:a8:b6:be:73:54:64:9c:84:11:
        f2:70:14:95:78:ec:57:32:84:c4:3f:71:66:34:7b:1f:b8:fb:
        3c:55:b1:f2:ab:65:81:4f:90:ba:f4:f7:3c:ed:c0:d4:cd:57:
        59:54:2b:31:5f:84:31:1a:47:e6:7e:d7:9d:b7:a9:21:0c:83:
        6d:4a:1b:d1:37:3b:1b:a5:06:17:e0:91:51:74:7b:ce:10:dc:
        ac:11:02:ab:d4:f8:85:14:0d:9f:c8:4a:b6:91:d7:d8:2f:08:
        8e:dc:09:ac:d3:24:40:0c:a8:28:a7:ad:8a:60:99:74:0b:06:
        38:98:00:87:11:2f:aa:b3:ef:c2:71:92:7f:d5:52:3b:7c:eb:
        a0:e7:4f:1f:f4:39:74:6c:ec:95:d0:bd:32:70:5e:64:0d:67:
        59:e3:33:32:50:a1:29:c7:f0:d9:3b:32:0b:88:52:56:9b:9f:
        d0:29:26:e9:56:6a:00:49:d5:de:d8:0b:42:aa:c0:dc:da:b8:
        ac:85:6b:f6:e3:90:bb:fa:36:bd:f3:3d:48:19:1f:fa:aa:a7:
        1e:3e:e1:83:63:62:d8:5b:47:2f:8d:d6:23:de:e5:ff:24:b4:
        7f:80:9b:d5:0d:dc:a2:97:0c:cf:3b:ad:89:ed:ba:f3:ee:fa:
        c4:d5:44:0e:cb:e8:06:ed:2e:61:e2:13:6c:86:41:4b:1e:6e:
        6a:d5:48:71:d3:4b:ff:32:89:92:d1:5a:f1:9d:f5:23:42:3a:
        76:57:24:ac:fe:90:aa:14:61:1f:8d:90:18:c0:bc:76:b6:3e:
        a0:70:e8:fe:01:e7:03:65:54:94:06:57:54:43:54:e1:b1:ec:
        99:28:82:ae:e1:e3:2b:2a:b2:96:79:27:f4:e5:3f:ce:96:63:
        dd:61:ca:32:c3:4e:a1:13:cc:b6:b9:1e:67:20:59:73:d9:ef:
        8a:f9:91:3b:81:55:0b:c5
-----BEGIN CERTIFICATE-----
MIIFQTCCAymgAwIBAgIUQtMH/I1aHgP3YvYGMbT94cxz1QcwDQYJKoZIhvcNAQEL
BQAwMDEuMCwGA1UEAwwlSnNpZ24gUm9vdCBDZXJ0aWZpY2F0ZSBBdXRob3JpdHkg
MjAyNDAeFw0yNDA1MTAxMzA4MTlaFw00NDA1MTAxMzA4MTlaMDAxLjAsBgNVBAMM
JUpzaWduIFJvb3QgQ2VydGlmaWNhdGUgQXV0aG9yaXR5IDIwMjQwggIiMA0GCSqG
SIb3DQEBAQUAA4ICDwAwggIKAoICAQCxF3CzIFUpSTJ7SUMRgjZqrHicvg/8/pco
DNlpcSxbGuNWjwAW9TuVuNp+rDaKPhgeH5JGlJwqtK3Se7P+0rpCLfTs/7ErgSZJ
vSYKNK5gF3CrYps6hC3H2A09KV9MLMtdwLKBJA4YHK/dB1KQvhxRJETCLxxoZPoP
PLkdc9SBOyHMHjmhTeJhF2yu88g6zmre2INS27nGVZuCULFLbb03MkLza5zQop2k
GeF5eoSkt/gkWfqOU4qvIvGQFo2txZjkcERIks45yomj618twpv1UEwRvz/bV4GY
bN28w2o7FpFWIgb7VULAyUM3fO06lTXg2209rPXupPIW3A4HY0wjnZVcaPwiImg7
8Sq8pR5fXYQ/70UQTeRQfzidhfYn7s+BXZ8/iDZ/sd6ry3XDE/E5VoMGVSvbjCYK
/oz4PEu+DK5OHZLMpnQcaw/20EDSa59FyQkVbBTz8JngFYTJdZAU0iRJdqk/KOwR
/+W4ALLoM9kSp2fuorzuPMsW7MnSKyfhV0YWAmXtgPwZrYOD7Q99uTi3NqaOvH7T
pioh60JyuPHvIncgjMEDyN58sC1tZKGRNKQNSPjd6shjdJpumuV4S22QRopMwI3h
HUYBvcI/3QdyPop/32pxSUq3QYPZ9jIgZncZ13P7U3sPUL23S7KYmcFUb7YPxWMr
3nE/3iCvsQIDAQABo1MwUTAdBgNVHQ4EFgQUHP8uLH7cfoye1Oin+i3mtXWrlhEw
HwYDVR0jBBgwFoAUHP8uLH7cfoye1Oin+i3mtXWrlhEwDwYDVR0TAQH/BAUwAwEB
/zANBgkqhkiG9w0BAQsFAAOCAgEAoBugmBZJ/IEoOxMTAunqQLYf6xHKCvTkCcuZ
1OPjwvxAi18k1P40E8DESZdYs/SueqchwF4s1+v9a/A1lGoAWYVYVAkYUNv1ojhv
cbS1YN5a7+NOus4ertOJ9gK1DomS+J4FOU7rARV08Ocq7Fs4dcISir3tVb60c0FV
zyhjv2QtGNHC6Ga3oKQUJNiDLDuCPuiuXQyLTm/TqLa+c1RknIQR8nAUlXjsVzKE
xD9xZjR7H7j7PFWx8qtlgU+QuvT3PO3A1M1XWVQrMV+EMRpH5n7XnbepIQyDbUob
0Tc7G6UGF+CRUXR7zhDcrBECq9T4hRQNn8hKtpHX2C8IjtwJrNMkQAyoKKetimCZ
dAsGOJgAhxEvqrPvwnGSf9VSO3zroOdPH/Q5dGzsldC9MnBeZA1nWeMzMlChKcfw
2TsyC4hSVpuf0Ckm6VZqAEnV3tgLQqrA3Nq4rIVr9uOQu/o2vfM9SBkf+qqnHj7h
g2Ni2FtHL43WI97l/yS0f4Cb1Q3copcMzzutie268+76xNVEDsvoBu0uYeITbIZB
Sx5uatVIcdNL/zKJktFa8Z31I0I6dlckrP6QqhRhH42QGMC8drY+oHDo/gHnA2VU
lAZXVENU4bHsmSiCruHjKyqylnkn9OU/zpZj3WHKMsNOoRPMtrkeZyBZc9nvivmR
O4FVC8U=
-----END CERTIFICATE-----
