Certificate:
    Data:
        Version: 3 (0x2)
        Serial Number:
            32:9f:d5:35:c0:6e:41:49:02:14:48:0c:b3:92:31:10:d3:96:62:02
        Signature Algorithm: sha256WithRSAEncryption
        Issuer: CN = Jsign Code Signing CA 2024
        Validity
            Not Before: May  6 12:51:03 2024 GMT
            Not After : May  1 12:51:03 2044 GMT
        Subject: CN = Jsign Code Signing Test Certificate 2024 (RSA)
        Subject Public Key Info:
            Public Key Algorithm: rsaEncryption
                Public-Key: (2048 bit)
                Modulus:
                    00:a6:90:52:e5:90:ac:79:c7:ca:39:1d:87:05:9d:
                    a9:3f:96:d2:0f:6d:ea:f4:e7:42:65:38:cb:f5:e9:
                    83:9c:2c:17:53:51:32:1d:ae:8c:b8:fb:3d:0c:7e:
                    fa:5e:df:64:9c:77:bc:2d:49:27:5f:d1:33:a0:95:
                    14:16:2e:6b:32:f0:7c:38:e5:e3:f3:63:e2:78:25:
                    8a:df:a2:8c:e2:6d:5e:70:71:48:62:29:29:94:da:
                    39:1c:3d:69:87:0c:22:f1:d1:8b:16:45:aa:95:48:
                    7c:0d:08:ee:08:c4:07:f5:a4:23:a1:ea:f9:e3:ee:
                    d1:91:80:36:8a:e0:80:9c:7f:40:fe:48:84:13:f3:
                    29:29:af:fb:cd:dc:40:0f:79:e0:93:7c:12:37:72:
                    b8:cc:d5:b3:64:aa:3b:28:14:6c:a3:5a:8b:88:e5:
                    9a:2b:44:53:22:81:ff:6f:64:f6:9a:3e:f7:da:49:
                    dc:a5:10:7b:e0:47:96:2d:df:c8:41:4d:cd:47:4f:
                    f6:70:7a:15:4c:3e:f6:4a:38:f3:f0:b4:ab:ba:8a:
                    7a:b2:a4:9d:85:b7:ca:c6:70:0f:bd:16:31:de:34:
                    6b:fe:14:d5:c0:01:48:56:d5:bf:22:15:01:ae:1d:
                    c5:1a:1c:a3:9d:86:92:df:b1:d4:68:4e:0b:3b:4b:
                    b5:0f
                Exponent: 65537 (0x10001)
        X509v3 extensions:
            X509v3 Basic Constraints: 
                CA:FALSE
            X509v3 Key Usage: 
                Digital Signature
            X509v3 Extended Key Usage: 
                Code Signing
            X509v3 Subject Key Identifier: 
                12:C4:8A:0E:6F:16:47:F1:B2:1F:CE:7B:2F:30:E6:27:28:31:34:93
            X509v3 Authority Key Identifier: 
                E3:8F:A1:52:E6:90:EB:85:6A:13:9A:5F:39:16:2A:67:51:E3:4F:ED
            X509v3 CRL Distribution Points: 
                Full Name:
                  URI:http://localhost:31457/jsign-intermediate.crl
            Authority Information Access: 
                OCSP - URI:http://localhost:31457/ocsp
    Signature Algorithm: sha256WithRSAEncryption
    Signature Value:
        70:d0:72:cc:f1:69:00:ae:c3:ba:40:4b:bf:77:38:6d:8f:1a:
        c8:3c:7a:c5:ed:b8:38:d1:bb:55:d8:df:23:02:0f:50:81:70:
        4f:73:70:fc:d2:66:9f:99:4c:44:e8:c4:47:b1:f1:ad:61:4c:
        3c:02:a7:8c:c5:92:ee:2c:43:c5:22:bd:d2:93:a1:31:cc:e5:
        1b:de:63:8a:4f:b4:06:1c:bb:a8:5d:3c:94:47:6b:94:09:de:
        c3:66:89:94:d8:88:2c:94:9c:82:0b:83:71:8d:57:29:c3:38:
        d9:95:e7:c6:68:84:c3:54:dc:1e:b5:63:a8:54:2e:e9:a2:1e:
        8a:f1:be:f3:a2:c1:09:41:e9:02:33:24:0e:fe:8c:3e:fe:c5:
        3e:ae:01:03:57:dd:a8:2d:4d:fc:85:1b:9f:ba:fd:91:e2:db:
        9b:32:5b:47:b6:e7:f6:ae:21:97:04:02:d0:80:72:a9:ae:dd:
        c7:53:e3:f9:a9:ca:31:2f:2d:f7:8b:ef:55:fe:35:01:ea:92:
        d4:ca:e4:f0:41:75:95:c8:10:39:ab:38:c7:aa:53:dd:a4:9d:
        94:3d:73:e2:a5:f5:1c:b7:a5:39:b1:5c:66:92:75:94:67:4f:
        2f:90:f4:51:c1:f3:9e:4e:9d:cf:54:27:28:89:81:ed:8f:b6:
        e4:ea:86:37
-----BEGIN CERTIFICATE-----
MIID1jCCAr6gAwIBAgIUMp/VNcBuQUkCFEgMs5IxENOWYgIwDQYJKoZIhvcNAQEL
BQAwJTEjMCEGA1UEAwwaSnNpZ24gQ29kZSBTaWduaW5nIENBIDIwMjQwHhcNMjQw
NTA2MTI1MTAzWhcNNDQwNTAxMTI1MTAzWjA5MTcwNQYDVQQDDC5Kc2lnbiBDb2Rl
IFNpZ25pbmcgVGVzdCBDZXJ0aWZpY2F0ZSAyMDI0IChSU0EpMIIBIjANBgkqhkiG
9w0BAQEFAAOCAQ8AMIIBCgKCAQEAppBS5ZCsecfKOR2HBZ2pP5bSD23q9OdCZTjL
9emDnCwXU1EyHa6MuPs9DH76Xt9knHe8LUknX9EzoJUUFi5rMvB8OOXj82PieCWK
36KM4m1ecHFIYikplNo5HD1phwwi8dGLFkWqlUh8DQjuCMQH9aQjoer54+7RkYA2
iuCAnH9A/kiEE/MpKa/7zdxAD3ngk3wSN3K4zNWzZKo7KBRso1qLiOWaK0RTIoH/
b2T2mj732kncpRB74EeWLd/IQU3NR0/2cHoVTD72Sjjz8LSruop6sqSdhbfKxnAP
vRYx3jRr/hTVwAFIVtW/IhUBrh3FGhyjnYaS37HUaE4LO0u1DwIDAQABo4HpMIHm
MAkGA1UdEwQCMAAwCwYDVR0PBAQDAgeAMBMGA1UdJQQMMAoGCCsGAQUFBwMDMB0G
A1UdDgQWBBQSxIoObxZH8bIfznsvMOYnKDE0kzAfBgNVHSMEGDAWgBTjj6FS5pDr
hWoTml85FipnUeNP7TA+BgNVHR8ENzA1MDOgMaAvhi1odHRwOi8vbG9jYWxob3N0
OjMxNDU3L2pzaWduLWludGVybWVkaWF0ZS5jcmwwNwYIKwYBBQUHAQEEKzApMCcG
CCsGAQUFBzABhhtodHRwOi8vbG9jYWxob3N0OjMxNDU3L29jc3AwDQYJKoZIhvcN
AQELBQADggEBAHDQcszxaQCuw7pAS793OG2PGsg8esXtuDjRu1XY3yMCD1CBcE9z
cPzSZp+ZTEToxEex8a1hTDwCp4zFku4sQ8UivdKToTHM5RveY4pPtAYcu6hdPJRH
a5QJ3sNmiZTYiCyUnIILg3GNVynDONmV58ZohMNU3B61Y6hULumiHorxvvOiwQlB
6QIzJA7+jD7+xT6uAQNX3agtTfyFG5+6/ZHi25syW0e25/auIZcEAtCAcqmu3cdT
4/mpyjEvLfeL71X+NQHqktTK5PBBdZXIEDmrOMeqU92knZQ9c+Kl9Ry3pTmxXGaS
dZRnTy+Q9FHB855Onc9UJyiJge2PtuTqhjc=
-----END CERTIFICATE-----
Certificate:
    Data:
        Version: 3 (0x2)
        Serial Number:
            58:28:b4:10:6d:0c:37:1b:fb:dd:3e:cb:83:aa:f8:c6:df:36:06:1b
        Signature Algorithm: sha256WithRSAEncryption
        Issuer: CN = Jsign Root Certificate Authority 2024
        Validity
            Not Before: May  6 12:51:03 2024 GMT
            Not After : May  1 12:51:03 2044 GMT
        Subject: CN = Jsign Code Signing CA 2024
        Subject Public Key Info:
            Public Key Algorithm: rsaEncryption
                Public-Key: (2048 bit)
                Modulus:
                    00:eb:e0:a0:5b:f3:f9:75:8b:23:6c:0c:ba:2f:fb:
                    24:c9:cb:bb:a8:9e:91:0f:35:8e:eb:02:ba:24:16:
                    fc:81:46:a5:43:f8:f5:2e:3b:d4:f3:98:a6:63:1a:
                    df:ed:eb:02:86:17:8f:0e:e0:da:86:34:eb:e0:af:
                    7a:a8:5e:86:1f:12:d0:f0:20:b5:36:00:05:c7:43:
                    fe:b4:9e:4a:bb:87:0f:db:fa:95:a6:55:2c:89:5a:
                    de:49:77:b5:5f:5c:2a:b2:b3:9b:19:bb:7a:ac:5d:
                    16:27:18:94:ba:0a:0c:bb:65:47:8b:af:8e:74:4a:
                    e2:ed:8d:0b:45:f8:bd:b3:32:42:6e:c6:ae:4e:d8:
                    dd:ff:d2:58:3e:60:4d:a4:a4:1e:8f:20:2c:fa:82:
                    14:0b:22:1b:61:a1:41:1d:11:c6:42:32:1e:40:a0:
                    4c:d2:c1:ab:52:ed:4a:73:09:7b:c1:c2:bb:1d:31:
                    28:82:ba:76:26:13:0e:50:0a:52:14:6e:fa:d6:d4:
                    4d:5b:fb:6c:e4:77:bb:45:5a:60:ce:96:f0:2c:3f:
                    a5:bd:cf:7e:05:d1:73:af:19:72:54:1d:fa:5c:31:
                    d4:ef:f1:27:5e:ce:77:2d:f8:62:cb:2a:53:75:38:
                    a7:d0:f0:01:32:3f:bc:4e:6b:ef:88:ce:01:ae:83:
                    53:17
                Exponent: 65537 (0x10001)
        X509v3 extensions:
            X509v3 Basic Constraints: 
                CA:TRUE, pathlen:0
            X509v3 Key Usage: 
                Certificate Sign, CRL Sign
            X509v3 Extended Key Usage: 
                Code Signing
            X509v3 Subject Key Identifier: 
                E3:8F:A1:52:E6:90:EB:85:6A:13:9A:5F:39:16:2A:67:51:E3:4F:ED
            X509v3 Authority Key Identifier: 
                77:A0:44:86:D7:AA:2E:8B:38:D7:C4:5E:78:FE:EB:19:09:41:59:0F
            X509v3 CRL Distribution Points: 
                Full Name:
                  URI:http://localhost:31457/jsign-ca.crl
            Authority Information Access: 
                OCSP - URI:http://localhost:31457/ocsp
    Signature Algorithm: sha256WithRSAEncryption
    Signature Value:
        0d:81:6b:bb:a1:30:b2:74:0c:94:33:ae:f6:5a:93:b6:94:e0:
        9d:19:5e:c6:7f:e5:e7:a5:4b:e8:aa:32:c1:3a:ec:1a:b1:76:
        7f:66:04:14:4b:30:69:d2:60:6f:a3:05:02:3c:fe:9c:99:12:
        05:0d:c8:9c:9a:e8:8a:20:13:a4:c0:2f:d3:2f:39:55:f2:c1:
        10:e8:b3:80:f0:81:36:3d:31:ff:a7:01:d6:db:29:a5:67:5d:
        4c:39:fa:ad:34:3d:30:bb:89:d3:91:fd:3a:1c:19:72:a8:21:
        36:01:41:78:23:1f:ac:2c:92:6f:f5:b3:a9:75:fd:27:44:7f:
        d2:7f:1a:b8:ac:1b:b8:2e:f2:c9:0d:97:de:3f:eb:05:de:0e:
        6a:fb:f6:6b:ef:2b:a7:13:3e:fe:21:7f:f2:96:e3:9a:b2:86:
        16:dc:a5:b1:33:c5:65:8e:df:ed:38:66:b9:54:d5:42:41:29:
        9f:65:ef:df:f0:9f:99:c4:c2:a0:ee:32:a3:3d:6a:3f:a2:27:
        9e:43:45:fa:c1:27:f3:e8:81:a4:72:10:03:ea:ac:aa:fd:9a:
        49:48:31:75:04:d4:91:d3:3b:9c:fa:54:e4:87:3c:d6:c7:d0:
        ca:b5:ca:2f:17:37:12:a2:42:05:65:ea:ab:24:fd:d8:f6:52:
        15:96:46:51:6f:39:41:60:5c:41:58:f0:61:ec:8c:b0:3d:13:
        1a:12:a3:dd:79:1d:df:2f:5f:f3:0f:02:9e:a6:50:b4:de:5b:
        47:c8:72:22:2c:62:3d:dd:11:3f:d4:0a:9a:6b:ba:dd:8c:b3:
        2a:9e:bd:23:ad:d7:6f:c4:9a:70:2c:ad:ea:43:48:f3:ac:d5:
        2b:ef:4b:90:c4:58:96:f8:d8:50:d1:d7:f7:64:6b:7b:0a:e4:
        dd:c0:a1:10:18:50:47:f0:8d:9c:98:72:85:b1:c0:58:62:42:
        52:c1:18:3b:66:3b:16:6a:93:6d:c5:8a:5f:b5:84:42:03:3e:
        be:2a:96:fc:04:2d:dd:99:b2:f9:0b:ad:9b:95:d6:96:ca:d2:
        f4:b0:ca:47:5c:bc:ca:77:5e:eb:75:da:e3:92:64:bf:21:6a:
        b1:a1:05:32:b5:49:8c:95:0d:e5:7a:1a:7d:85:24:04:63:ff:
        54:b4:f2:1b:ec:f1:14:c3:6a:3a:a9:98:8e:5d:6c:07:c5:02:
        a4:fb:ec:aa:0a:7c:58:07:45:4d:ff:29:c7:07:7e:e8:4f:23:
        d9:b7:96:c2:99:73:2a:97:c2:3d:34:8f:af:53:35:8d:6a:f7:
        df:0a:8a:91:dd:ea:2e:b2:70:cb:0c:49:26:cd:a3:08:cf:0e:
        6d:ed:1a:db:de:d5:84:1a
-----BEGIN CERTIFICATE-----
MIIEyTCCArGgAwIBAgIUWCi0EG0MNxv73T7Lg6r4xt82BhswDQYJKoZIhvcNAQEL
BQAwMDEuMCwGA1UEAwwlSnNpZ24gUm9vdCBDZXJ0aWZpY2F0ZSBBdXRob3JpdHkg
MjAyNDAeFw0yNDA1MDYxMjUxMDNaFw00NDA1MDExMjUxMDNaMCUxIzAhBgNVBAMM
GkpzaWduIENvZGUgU2lnbmluZyBDQSAyMDI0MIIBIjANBgkqhkiG9w0BAQEFAAOC
AQ8AMIIBCgKCAQEA6+CgW/P5dYsjbAy6L/skycu7qJ6RDzWO6wK6JBb8gUalQ/j1
LjvU85imYxrf7esChhePDuDahjTr4K96qF6GHxLQ8CC1NgAFx0P+tJ5Ku4cP2/qV
plUsiVreSXe1X1wqsrObGbt6rF0WJxiUugoMu2VHi6+OdEri7Y0LRfi9szJCbsau
Ttjd/9JYPmBNpKQejyAs+oIUCyIbYaFBHRHGQjIeQKBM0sGrUu1Kcwl7wcK7HTEo
grp2JhMOUApSFG761tRNW/ts5He7RVpgzpbwLD+lvc9+BdFzrxlyVB36XDHU7/En
Xs53LfhiyypTdTin0PABMj+8TmvviM4BroNTFwIDAQABo4HlMIHiMA8GA1UdEwQI
MAYBAf8CAQAwCwYDVR0PBAQDAgEGMBMGA1UdJQQMMAoGCCsGAQUFBwMDMB0GA1Ud
DgQWBBTjj6FS5pDrhWoTml85FipnUeNP7TAfBgNVHSMEGDAWgBR3oESG16ouizjX
xF54/usZCUFZDzA0BgNVHR8ELTArMCmgJ6AlhiNodHRwOi8vbG9jYWxob3N0OjMx
NDU3L2pzaWduLWNhLmNybDA3BggrBgEFBQcBAQQrMCkwJwYIKwYBBQUHMAGGG2h0
dHA6Ly9sb2NhbGhvc3Q6MzE0NTcvb2NzcDANBgkqhkiG9w0BAQsFAAOCAgEADYFr
u6EwsnQMlDOu9lqTtpTgnRlexn/l56VL6KoywTrsGrF2f2YEFEswadJgb6MFAjz+
nJkSBQ3InJroiiATpMAv0y85VfLBEOizgPCBNj0x/6cB1tsppWddTDn6rTQ9MLuJ
05H9OhwZcqghNgFBeCMfrCySb/WzqXX9J0R/0n8auKwbuC7yyQ2X3j/rBd4Oavv2
a+8rpxM+/iF/8pbjmrKGFtylsTPFZY7f7ThmuVTVQkEpn2Xv3/CfmcTCoO4yoz1q
P6InnkNF+sEn8+iBpHIQA+qsqv2aSUgxdQTUkdM7nPpU5Ic81sfQyrXKLxc3EqJC
BWXqqyT92PZSFZZGUW85QWBcQVjwYeyMsD0TGhKj3Xkd3y9f8w8CnqZQtN5bR8hy
IixiPd0RP9QKmmu63YyzKp69I63Xb8SacCyt6kNI86zVK+9LkMRYlvjYUNHX92Rr
ewrk3cChEBhQR/CNnJhyhbHAWGJCUsEYO2Y7FmqTbcWKX7WEQgM+viqW/AQt3Zmy
+Qutm5XWlsrS9LDKR1y8ynde63Xa45JkvyFqsaEFMrVJjJUN5XoafYUkBGP/VLTy
G+zxFMNqOqmYjl1sB8UCpPvsqgp8WAdFTf8pxwd+6E8j2beWwplzKpfCPTSPr1M1
jWr33wqKkd3qLrJwywxJJs2jCM8Obe0a297VhBo=
-----END CERTIFICATE-----
Certificate:
    Data:
        Version: 3 (0x2)
        Serial Number:
            07:1f:f9:2e:6f:51:c5:58:e6:88:9d:99:47:0a:08:97:f9:eb:bc:66
        Signature Algorithm: sha256WithRSAEncryption
        Issuer: CN = Jsign Root Certificate Authority 2024
        Validity
            Not Before: May  6 12:51:03 2024 GMT
            Not After : May  1 12:51:03 2044 GMT
        Subject: CN = Jsign Root Certificate Authority 2024
        Subject Public Key Info:
            Public Key Algorithm: rsaEncryption
                Public-Key: (4096 bit)
                Modulus:
                    00:c4:54:ec:f0:69:9f:58:2d:f3:6b:4a:9e:59:d3:
                    37:b8:8b:f0:26:16:18:26:51:d9:98:ed:55:30:3d:
                    92:41:a8:97:d8:40:d8:59:5e:2b:49:30:10:e3:3c:
                    93:93:88:a3:10:f2:0b:bc:bc:e9:94:be:b9:e4:3d:
                    8a:57:df:30:49:36:42:05:ec:97:e9:d1:55:a3:29:
                    1b:51:88:a0:97:9f:5a:e4:0f:77:a2:ff:be:80:f1:
                    cb:32:79:ed:a6:b7:84:1e:ff:0c:a2:53:be:0a:75:
                    b8:54:6b:11:a4:99:d8:c3:a5:d8:af:59:85:7f:76:
                    b0:7e:24:07:4e:a9:d1:f4:22:e0:59:e0:9b:01:01:
                    0e:3e:b1:49:e5:6c:25:66:60:d0:b2:5b:7d:00:f7:
                    04:6a:3b:af:6e:e4:41:72:58:a8:9a:21:eb:5a:de:
                    a4:fe:9a:cc:da:21:87:4f:f9:2a:40:32:98:85:45:
                    b6:f6:7c:b5:0b:38:ce:b6:52:82:77:0c:78:ca:6b:
                    05:7b:a4:ad:2c:ca:6d:2d:8f:89:77:39:a0:42:bc:
                    1e:f1:b9:36:47:4e:1d:84:15:6d:17:ea:be:66:7a:
                    45:3f:8a:0d:77:19:7b:47:b7:df:21:cd:2e:cf:48:
                    d0:61:62:de:6e:4a:c5:09:e4:e7:87:4f:38:13:5f:
                    6a:94:5b:3a:52:56:28:29:69:ab:5f:96:ed:ea:8a:
                    8c:b5:26:0d:0a:e0:70:06:ea:f3:16:f6:19:95:ce:
                    4f:1e:47:10:b4:0e:91:7b:99:1d:ef:08:08:e3:70:
                    e8:bb:86:57:90:99:36:40:41:c2:58:c5:4a:65:a3:
                    7c:1a:95:5f:d0:3e:23:6a:5f:22:df:a3:e3:53:73:
                    88:52:c7:1a:fd:5b:ad:ac:76:3d:c3:de:e2:4b:05:
                    4f:c1:fb:00:55:00:8d:5f:d8:05:09:b3:7a:5c:a1:
                    d9:1a:60:b0:ee:80:fe:a8:c0:0b:d1:19:5f:92:1f:
                    59:bc:f1:68:39:23:f4:81:02:43:a9:f7:46:6e:8c:
                    f4:2c:42:e4:7a:dd:6b:56:7a:24:19:65:23:ff:5a:
                    75:28:b5:eb:aa:67:b8:f3:b5:e7:42:55:3a:9d:17:
                    b4:c5:85:14:47:6d:0e:a4:01:ce:b4:e0:cf:1c:f9:
                    ce:94:4d:39:ce:81:4f:8f:52:8e:7f:3c:61:3a:c0:
                    1a:0b:18:82:1a:8e:06:ee:6c:90:da:20:17:08:90:
                    1f:1e:34:7c:bf:c5:66:65:bc:f0:18:d1:60:48:a2:
                    8e:14:98:86:7e:29:30:d6:2f:78:c9:4c:85:ca:0f:
                    1b:48:1c:f8:c3:25:4e:7b:f6:d5:69:75:ef:b8:ea:
                    f7:30:a3
                Exponent: 65537 (0x10001)
        X509v3 extensions:
            X509v3 Subject Key Identifier: 
                77:A0:44:86:D7:AA:2E:8B:38:D7:C4:5E:78:FE:EB:19:09:41:59:0F
            X509v3 Authority Key Identifier: 
                77:A0:44:86:D7:AA:2E:8B:38:D7:C4:5E:78:FE:EB:19:09:41:59:0F
            X509v3 Basic Constraints: critical
                CA:TRUE
    Signature Algorithm: sha256WithRSAEncryption
    Signature Value:
        5a:a0:40:b0:44:1c:8f:cf:9e:81:a2:f0:92:6b:fe:aa:01:14:
        e4:aa:01:93:7b:20:3c:a2:a1:cd:40:79:7a:56:49:9f:b0:30:
        bf:2a:b8:21:19:f4:29:d3:f8:6e:c2:cf:b6:f6:ff:5e:ed:01:
        6b:04:42:e5:05:53:37:d5:8e:84:8f:75:67:bb:10:12:dc:65:
        fb:b9:01:ea:91:1f:96:00:b5:c6:f3:80:ec:b4:99:45:ba:21:
        1b:77:b2:e0:4e:c6:bf:27:c1:43:d0:7d:a5:b2:a5:18:31:fc:
        3c:5e:8d:8d:b3:a0:8a:d2:75:ad:16:82:f0:3e:e7:1f:7a:c3:
        db:97:fe:dd:44:19:4c:03:b5:f7:e1:33:f9:77:2b:c7:57:fe:
        3f:01:d6:5a:d1:d0:35:dc:96:ac:48:a0:3d:4c:26:cb:ce:8e:
        2b:c9:bf:17:91:b2:9d:45:2c:84:7c:32:7b:a0:5c:72:61:f1:
        c1:a4:97:90:11:22:f4:19:40:75:bb:f4:90:b3:1c:bf:b3:9e:
        b0:33:ac:16:41:ec:97:8e:24:80:02:04:57:c9:d7:35:3b:a4:
        48:b4:49:7a:c3:2e:70:e2:ef:44:c2:1f:d1:e6:3b:33:a6:f4:
        99:02:fa:5a:6d:39:81:c0:33:34:62:94:cd:5d:aa:a5:06:c6:
        a0:00:3b:ff:b8:72:29:3f:ad:8d:32:f8:13:48:92:db:54:08:
        7d:14:04:aa:a1:ba:65:35:c4:9f:91:d8:06:13:63:05:61:37:
        e5:0a:27:19:c0:9e:6b:4e:62:07:1b:83:75:af:dd:ea:94:bb:
        3f:1f:36:b5:e0:d9:45:f7:4b:49:dc:01:82:35:90:22:13:3b:
        11:06:b3:0f:ce:09:e6:b3:e0:aa:ac:da:4a:9b:85:b2:50:3b:
        38:df:8a:39:9e:42:1b:b7:ee:ab:8f:e1:77:0a:3c:03:7f:5b:
        71:28:64:de:66:b7:1a:3f:3f:43:93:10:94:ef:b4:86:f1:97:
        35:a3:b7:c1:21:25:05:4a:f4:d0:fe:0e:2e:14:76:27:8b:26:
        5d:58:44:d6:4c:b1:10:2a:7c:60:82:9e:7f:24:9e:21:b6:c6:
        8d:cc:3e:93:12:d4:c4:84:51:6f:14:4a:fc:d4:9d:c3:8c:e0:
        e3:36:75:74:9c:eb:7d:1f:68:a9:8b:08:a0:84:42:84:89:e4:
        0f:5d:5a:11:3e:05:4c:bf:1b:c4:59:e0:8f:5e:7c:e0:3f:89:
        63:f5:50:18:5b:26:13:bf:b1:f8:90:0a:b2:c2:88:67:7e:14:
        eb:14:d6:d1:67:07:31:79:32:6e:ce:2b:10:d3:c9:17:c0:d5:
        cf:ae:a0:3c:c4:09:45:fa
-----BEGIN CERTIFICATE-----
MIIFQTCCAymgAwIBAgIUBx/5Lm9RxVjmiJ2ZRwoIl/nrvGYwDQYJKoZIhvcNAQEL
BQAwMDEuMCwGA1UEAwwlSnNpZ24gUm9vdCBDZXJ0aWZpY2F0ZSBBdXRob3JpdHkg
MjAyNDAeFw0yNDA1MDYxMjUxMDNaFw00NDA1MDExMjUxMDNaMDAxLjAsBgNVBAMM
JUpzaWduIFJvb3QgQ2VydGlmaWNhdGUgQXV0aG9yaXR5IDIwMjQwggIiMA0GCSqG
SIb3DQEBAQUAA4ICDwAwggIKAoICAQDEVOzwaZ9YLfNrSp5Z0ze4i/AmFhgmUdmY
7VUwPZJBqJfYQNhZXitJMBDjPJOTiKMQ8gu8vOmUvrnkPYpX3zBJNkIF7Jfp0VWj
KRtRiKCXn1rkD3ei/76A8csyee2mt4Qe/wyiU74KdbhUaxGkmdjDpdivWYV/drB+
JAdOqdH0IuBZ4JsBAQ4+sUnlbCVmYNCyW30A9wRqO69u5EFyWKiaIeta3qT+msza
IYdP+SpAMpiFRbb2fLULOM62UoJ3DHjKawV7pK0sym0tj4l3OaBCvB7xuTZHTh2E
FW0X6r5mekU/ig13GXtHt98hzS7PSNBhYt5uSsUJ5OeHTzgTX2qUWzpSVigpaatf
lu3qioy1Jg0K4HAG6vMW9hmVzk8eRxC0DpF7mR3vCAjjcOi7hleQmTZAQcJYxUpl
o3walV/QPiNqXyLfo+NTc4hSxxr9W62sdj3D3uJLBU/B+wBVAI1f2AUJs3pcodka
YLDugP6owAvRGV+SH1m88Wg5I/SBAkOp90ZujPQsQuR63WtWeiQZZSP/WnUoteuq
Z7jztedCVTqdF7TFhRRHbQ6kAc604M8c+c6UTTnOgU+PUo5/PGE6wBoLGIIajgbu
bJDaIBcIkB8eNHy/xWZlvPAY0WBIoo4UmIZ+KTDWL3jJTIXKDxtIHPjDJU579tVp
de+46vcwowIDAQABo1MwUTAdBgNVHQ4EFgQUd6BEhteqLos418ReeP7rGQlBWQ8w
HwYDVR0jBBgwFoAUd6BEhteqLos418ReeP7rGQlBWQ8wDwYDVR0TAQH/BAUwAwEB
/zANBgkqhkiG9w0BAQsFAAOCAgEAWqBAsEQcj8+egaLwkmv+qgEU5KoBk3sgPKKh
zUB5elZJn7Awvyq4IRn0KdP4bsLPtvb/Xu0BawRC5QVTN9WOhI91Z7sQEtxl+7kB
6pEflgC1xvOA7LSZRbohG3ey4E7GvyfBQ9B9pbKlGDH8PF6NjbOgitJ1rRaC8D7n
H3rD25f+3UQZTAO19+Ez+Xcrx1f+PwHWWtHQNdyWrEigPUwmy86OK8m/F5GynUUs
hHwye6BccmHxwaSXkBEi9BlAdbv0kLMcv7OesDOsFkHsl44kgAIEV8nXNTukSLRJ
esMucOLvRMIf0eY7M6b0mQL6Wm05gcAzNGKUzV2qpQbGoAA7/7hyKT+tjTL4E0iS
21QIfRQEqqG6ZTXEn5HYBhNjBWE35QonGcCea05iBxuDda/d6pS7Px82teDZRfdL
SdwBgjWQIhM7EQazD84J5rPgqqzaSpuFslA7ON+KOZ5CG7fuq4/hdwo8A39bcShk
3ma3Gj8/Q5MQlO+0hvGXNaO3wSElBUr00P4OLhR2J4smXVhE1kyxECp8YIKefySe
IbbGjcw+kxLUxIRRbxRK/NSdw4zg4zZ1dJzrfR9oqYsIoIRChInkD11aET4FTL8b
xFngj1584D+JY/VQGFsmE7+x+JAKssKIZ34U6xTW0WcHMXkybs4rENPJF8DVz66g
PMQJRfo=
-----END CERTIFICATE-----
