Certificate:
    Data:
        Version: 3 (0x2)
        Serial Number:
            16:60:f6:78:e9:1f:05:9a:9b:d3:98:5c:c6:a8:e9:53:7f:ca:a8:42
        Signature Algorithm: sha256WithRSAEncryption
        Issuer: CN = Jsign Root Certificate Authority
        Validity
            Not Before: Oct 24 21:19:21 2021 GMT
            Not After : Oct 19 21:19:21 2041 GMT
        Subject: CN = Jsign Root Certificate Authority
        Subject Public Key Info:
            Public Key Algorithm: rsaEncryption
                RSA Public-Key: (2048 bit)
                Modulus:
                    00:b6:78:42:9f:24:75:7b:c2:d5:5b:4d:9d:15:f7:
                    4c:2b:0b:7b:13:3c:c7:37:84:a6:d2:3c:d9:cf:53:
                    5c:36:94:6b:1e:1b:ba:f1:79:6a:34:73:24:b5:ce:
                    95:2c:93:55:11:50:06:17:05:77:d3:c7:d4:51:64:
                    57:c6:fe:05:32:3b:c8:f0:a3:66:5d:24:50:6e:32:
                    87:de:4c:0c:5c:42:f0:c6:95:53:4c:1e:a7:64:02:
                    fa:51:7a:94:3c:e8:25:e3:54:6e:1e:e6:f1:f4:26:
                    53:b7:2a:1c:c6:da:ab:c0:3d:62:98:2d:d7:d7:1e:
                    ee:a5:99:bb:da:7c:3a:d2:69:63:b9:e2:81:2f:0b:
                    9a:f3:e9:0e:cc:e4:3a:ce:30:75:ad:b0:2c:dc:dd:
                    74:63:ca:f9:5e:a1:e6:25:29:7b:a6:aa:ca:05:58:
                    ef:61:6c:da:4a:df:40:66:74:de:fc:24:b6:cb:2c:
                    b2:30:ca:39:c0:d2:c8:a9:e3:5f:a5:e9:d2:25:5b:
                    a3:70:7c:4f:0f:c4:14:e5:a4:9d:4f:21:4a:dd:ee:
                    ae:73:57:8c:f8:36:b7:34:a6:ba:1b:3c:b8:1c:93:
                    55:dc:42:3c:99:91:42:e7:fa:4b:44:4a:0b:8d:8c:
                    ca:2a:38:e1:75:17:a3:55:20:ea:3e:ae:fe:2b:37:
                    e0:fd
                Exponent: 65537 (0x10001)
        X509v3 extensions:
            X509v3 Subject Key Identifier: 
                14:75:C5:84:5C:E3:FA:88:47:BF:C2:DF:27:00:AA:07:89:DA:1C:4A
            X509v3 Authority Key Identifier: 
                keyid:14:75:C5:84:5C:E3:FA:88:47:BF:C2:DF:27:00:AA:07:89:DA:1C:4A

            X509v3 Basic Constraints: critical
                CA:TRUE
    Signature Algorithm: sha256WithRSAEncryption
         a0:31:14:a6:dd:e9:a1:a8:12:7a:69:44:4b:f6:89:55:c5:98:
         40:62:ac:54:29:a3:bb:2a:0d:56:d8:67:f3:f2:34:de:ac:66:
         9f:f1:11:54:1d:f0:96:bd:84:e4:79:24:9b:a7:03:c2:8b:87:
         fd:d7:a5:75:35:6a:22:b8:e8:a5:e5:f6:74:2c:d0:2d:48:f5:
         28:c8:ff:b1:98:95:e9:fd:8f:34:39:09:fc:a0:f8:dd:47:31:
         87:6b:d8:55:a5:2f:3e:fb:ba:e5:77:87:1f:c7:6c:5c:be:c7:
         78:62:2b:fb:c3:bc:89:9a:cd:ce:38:b0:ef:f0:9a:d2:d7:f7:
         03:86:00:03:a8:43:93:c8:9c:dd:21:f8:90:15:01:68:d7:81:
         f9:8f:5c:1e:04:dd:76:31:f6:11:fd:80:da:b6:c5:78:1f:00:
         c6:19:27:32:d3:25:7d:0f:51:68:ff:26:31:dd:cc:3b:33:e0:
         9a:58:b1:1f:77:31:99:da:da:f5:bb:3f:64:60:7b:b9:54:c6:
         89:ee:cf:6b:a5:c1:98:57:be:86:38:c7:cb:3d:e9:6f:07:35:
         69:3b:03:88:c3:80:83:91:0a:f6:02:3d:b7:31:db:c6:66:ae:
         4e:f1:cc:0d:ee:be:02:1e:6f:0d:5f:8f:de:0e:6b:3c:98:66:
         29:2b:1d:f4
-----BEGIN CERTIFICATE-----
MIIDNzCCAh+gAwIBAgIUFmD2eOkfBZqb05hcxqjpU3/KqEIwDQYJKoZIhvcNAQEL
BQAwKzEpMCcGA1UEAwwgSnNpZ24gUm9vdCBDZXJ0aWZpY2F0ZSBBdXRob3JpdHkw
HhcNMjExMDI0MjExOTIxWhcNNDExMDE5MjExOTIxWjArMSkwJwYDVQQDDCBKc2ln
biBSb290IENlcnRpZmljYXRlIEF1dGhvcml0eTCCASIwDQYJKoZIhvcNAQEBBQAD
ggEPADCCAQoCggEBALZ4Qp8kdXvC1VtNnRX3TCsLexM8xzeEptI82c9TXDaUax4b
uvF5ajRzJLXOlSyTVRFQBhcFd9PH1FFkV8b+BTI7yPCjZl0kUG4yh95MDFxC8MaV
U0wep2QC+lF6lDzoJeNUbh7m8fQmU7cqHMbaq8A9Ypgt19ce7qWZu9p8OtJpY7ni
gS8LmvPpDszkOs4wda2wLNzddGPK+V6h5iUpe6aqygVY72Fs2krfQGZ03vwktsss
sjDKOcDSyKnjX6Xp0iVbo3B8Tw/EFOWknU8hSt3urnNXjPg2tzSmuhs8uByTVdxC
PJmRQuf6S0RKC42Myio44XUXo1Ug6j6u/is34P0CAwEAAaNTMFEwHQYDVR0OBBYE
FBR1xYRc4/qIR7/C3ycAqgeJ2hxKMB8GA1UdIwQYMBaAFBR1xYRc4/qIR7/C3ycA
qgeJ2hxKMA8GA1UdEwEB/wQFMAMBAf8wDQYJKoZIhvcNAQELBQADggEBAKAxFKbd
6aGoEnppREv2iVXFmEBirFQpo7sqDVbYZ/PyNN6sZp/xEVQd8Ja9hOR5JJunA8KL
h/3XpXU1aiK46KXl9nQs0C1I9SjI/7GYlen9jzQ5Cfyg+N1HMYdr2FWlLz77uuV3
hx/HbFy+x3hiK/vDvImazc44sO/wmtLX9wOGAAOoQ5PInN0h+JAVAWjXgfmPXB4E
3XYx9hH9gNq2xXgfAMYZJzLTJX0PUWj/JjHdzDsz4JpYsR93MZna2vW7P2Rge7lU
xonuz2ulwZhXvoY4x8s96W8HNWk7A4jDgIORCvYCPbcx28Zmrk7xzA3uvgIebw1f
j94OazyYZikrHfQ=
-----END CERTIFICATE-----
