Certificate:
    Data:
        Version: 3 (0x2)
        Serial Number:
            42:d3:07:fc:8d:5a:1e:03:f7:62:f6:06:31:b4:fd:e1:cc:73:d5:07
        Signature Algorithm: sha256WithRSAEncryption
        Issuer: CN = Jsign Root Certificate Authority 2024
        Validity
            Not Before: May 10 13:08:19 2024 GMT
            Not After : May 10 13:08:19 2044 GMT
        Subject: CN = Jsign Root Certificate Authority 2024
        Subject Public Key Info:
            Public Key Algorithm: rsaEncryption
                Public-Key: (4096 bit)
                Modulus:
                    00:b1:17:70:b3:20:55:29:49:32:7b:49:43:11:82:
                    36:6a:ac:78:9c:be:0f:fc:fe:97:28:0c:d9:69:71:
                    2c:5b:1a:e3:56:8f:00:16:f5:3b:95:b8:da:7e:ac:
                    36:8a:3e:18:1e:1f:92:46:94:9c:2a:b4:ad:d2:7b:
                    b3:fe:d2:ba:42:2d:f4:ec:ff:b1:2b:81:26:49:bd:
                    26:0a:34:ae:60:17:70:ab:62:9b:3a:84:2d:c7:d8:
                    0d:3d:29:5f:4c:2c:cb:5d:c0:b2:81:24:0e:18:1c:
                    af:dd:07:52:90:be:1c:51:24:44:c2:2f:1c:68:64:
                    fa:0f:3c:b9:1d:73:d4:81:3b:21:cc:1e:39:a1:4d:
                    e2:61:17:6c:ae:f3:c8:3a:ce:6a:de:d8:83:52:db:
                    b9:c6:55:9b:82:50:b1:4b:6d:bd:37:32:42:f3:6b:
                    9c:d0:a2:9d:a4:19:e1:79:7a:84:a4:b7:f8:24:59:
                    fa:8e:53:8a:af:22:f1:90:16:8d:ad:c5:98:e4:70:
                    44:48:92:ce:39:ca:89:a3:eb:5f:2d:c2:9b:f5:50:
                    4c:11:bf:3f:db:57:81:98:6c:dd:bc:c3:6a:3b:16:
                    91:56:22:06:fb:55:42:c0:c9:43:37:7c:ed:3a:95:
                    35:e0:db:6d:3d:ac:f5:ee:a4:f2:16:dc:0e:07:63:
                    4c:23:9d:95:5c:68:fc:22:22:68:3b:f1:2a:bc:a5:
                    1e:5f:5d:84:3f:ef:45:10:4d:e4:50:7f:38:9d:85:
                    f6:27:ee:cf:81:5d:9f:3f:88:36:7f:b1:de:ab:cb:
                    75:c3:13:f1:39:56:83:06:55:2b:db:8c:26:0a:fe:
                    8c:f8:3c:4b:be:0c:ae:4e:1d:92:cc:a6:74:1c:6b:
                    0f:f6:d0:40:d2:6b:9f:45:c9:09:15:6c:14:f3:f0:
                    99:e0:15:84:c9:75:90:14:d2:24:49:76:a9:3f:28:
                    ec:11:ff:e5:b8:00:b2:e8:33:d9:12:a7:67:ee:a2:
                    bc:ee:3c:cb:16:ec:c9:d2:2b:27:e1:57:46:16:02:
                    65:ed:80:fc:19:ad:83:83:ed:0f:7d:b9:38:b7:36:
                    a6:8e:bc:7e:d3:a6:2a:21:eb:42:72:b8:f1:ef:22:
                    77:20:8c:c1:03:c8:de:7c:b0:2d:6d:64:a1:91:34:
                    a4:0d:48:f8:dd:ea:c8:63:74:9a:6e:9a:e5:78:4b:
                    6d:90:46:8a:4c:c0:8d:e1:1d:46:01:bd:c2:3f:dd:
                    07:72:3e:8a:7f:df:6a:71:49:4a:b7:41:83:d9:f6:
                    32:20:66:77:19:d7:73:fb:53:7b:0f:50:bd:b7:4b:
                    b2:98:99:c1:54:6f:b6:0f:c5:63:2b:de:71:3f:de:
                    20:af:b1
                Exponent: 65537 (0x10001)
        X509v3 extensions:
            X509v3 Subject Key Identifier: 
                1C:FF:2E:2C:7E:DC:7E:8C:9E:D4:E8:A7:FA:2D:E6:B5:75:AB:96:11
            X509v3 Authority Key Identifier: 
                1C:FF:2E:2C:7E:DC:7E:8C:9E:D4:E8:A7:FA:2D:E6:B5:75:AB:96:11
            X509v3 Basic Constraints: critical
                CA:TRUE
    Signature Algorithm: sha256WithRSAEncryption
    Signature Value:
        a0:1b:a0:98:16:49:fc:81:28:3b:13:13:02:e9:ea:40:b6:1f:
        eb:11:ca:0a:f4:e4:09:cb:99:d4:e3:e3:c2:fc:40:8b:5f:24:
        d4:fe:34:13:c0:c4:49:97:58:b3:f4:ae:7a:a7:21:c0:5e:2c:
        d7:eb:fd:6b:f0:35:94:6a:00:59:85:58:54:09:18:50:db:f5:
        a2:38:6f:71:b4:b5:60:de:5a:ef:e3:4e:ba:ce:1e:ae:d3:89:
        f6:02:b5:0e:89:92:f8:9e:05:39:4e:eb:01:15:74:f0:e7:2a:
        ec:5b:38:75:c2:12:8a:bd:ed:55:be:b4:73:41:55:cf:28:63:
        bf:64:2d:18:d1:c2:e8:66:b7:a0:a4:14:24:d8:83:2c:3b:82:
        3e:e8:ae:5d:0c:8b:4e:6f:d3:a8:b6:be:73:54:64:9c:84:11:
        f2:70:14:95:78:ec:57:32:84:c4:3f:71:66:34:7b:1f:b8:fb:
        3c:55:b1:f2:ab:65:81:4f:90:ba:f4:f7:3c:ed:c0:d4:cd:57:
        59:54:2b:31:5f:84:31:1a:47:e6:7e:d7:9d:b7:a9:21:0c:83:
        6d:4a:1b:d1:37:3b:1b:a5:06:17:e0:91:51:74:7b:ce:10:dc:
        ac:11:02:ab:d4:f8:85:14:0d:9f:c8:4a:b6:91:d7:d8:2f:08:
        8e:dc:09:ac:d3:24:40:0c:a8:28:a7:ad:8a:60:99:74:0b:06:
        38:98:00:87:11:2f:aa:b3:ef:c2:71:92:7f:d5:52:3b:7c:eb:
        a0:e7:4f:1f:f4:39:74:6c:ec:95:d0:bd:32:70:5e:64:0d:67:
        59:e3:33:32:50:a1:29:c7:f0:d9:3b:32:0b:88:52:56:9b:9f:
        d0:29:26:e9:56:6a:00:49:d5:de:d8:0b:42:aa:c0:dc:da:b8:
        ac:85:6b:f6:e3:90:bb:fa:36:bd:f3:3d:48:19:1f:fa:aa:a7:
        1e:3e:e1:83:63:62:d8:5b:47:2f:8d:d6:23:de:e5:ff:24:b4:
        7f:80:9b:d5:0d:dc:a2:97:0c:cf:3b:ad:89:ed:ba:f3:ee:fa:
        c4:d5:44:0e:cb:e8:06:ed:2e:61:e2:13:6c:86:41:4b:1e:6e:
        6a:d5:48:71:d3:4b:ff:32:89:92:d1:5a:f1:9d:f5:23:42:3a:
        76:57:24:ac:fe:90:aa:14:61:1f:8d:90:18:c0:bc:76:b6:3e:
        a0:70:e8:fe:01:e7:03:65:54:94:06:57:54:43:54:e1:b1:ec:
        99:28:82:ae:e1:e3:2b:2a:b2:96:79:27:f4:e5:3f:ce:96:63:
        dd:61:ca:32:c3:4e:a1:13:cc:b6:b9:1e:67:20:59:73:d9:ef:
        8a:f9:91:3b:81:55:0b:c5
-----BEGIN CERTIFICATE-----
MIIFQTCCAymgAwIBAgIUQtMH/I1aHgP3YvYGMbT94cxz1QcwDQYJKoZIhvcNAQEL
BQAwMDEuMCwGA1UEAwwlSnNpZ24gUm9vdCBDZXJ0aWZpY2F0ZSBBdXRob3JpdHkg
MjAyNDAeFw0yNDA1MTAxMzA4MTlaFw00NDA1MTAxMzA4MTlaMDAxLjAsBgNVBAMM
JUpzaWduIFJvb3QgQ2VydGlmaWNhdGUgQXV0aG9yaXR5IDIwMjQwggIiMA0GCSqG
SIb3DQEBAQUAA4ICDwAwggIKAoICAQCxF3CzIFUpSTJ7SUMRgjZqrHicvg/8/pco
DNlpcSxbGuNWjwAW9TuVuNp+rDaKPhgeH5JGlJwqtK3Se7P+0rpCLfTs/7ErgSZJ
vSYKNK5gF3CrYps6hC3H2A09KV9MLMtdwLKBJA4YHK/dB1KQvhxRJETCLxxoZPoP
PLkdc9SBOyHMHjmhTeJhF2yu88g6zmre2INS27nGVZuCULFLbb03MkLza5zQop2k
GeF5eoSkt/gkWfqOU4qvIvGQFo2txZjkcERIks45yomj618twpv1UEwRvz/bV4GY
bN28w2o7FpFWIgb7VULAyUM3fO06lTXg2209rPXupPIW3A4HY0wjnZVcaPwiImg7
8Sq8pR5fXYQ/70UQTeRQfzidhfYn7s+BXZ8/iDZ/sd6ry3XDE/E5VoMGVSvbjCYK
/oz4PEu+DK5OHZLMpnQcaw/20EDSa59FyQkVbBTz8JngFYTJdZAU0iRJdqk/KOwR
/+W4ALLoM9kSp2fuorzuPMsW7MnSKyfhV0YWAmXtgPwZrYOD7Q99uTi3NqaOvH7T
pioh60JyuPHvIncgjMEDyN58sC1tZKGRNKQNSPjd6shjdJpumuV4S22QRopMwI3h
HUYBvcI/3QdyPop/32pxSUq3QYPZ9jIgZncZ13P7U3sPUL23S7KYmcFUb7YPxWMr
3nE/3iCvsQIDAQABo1MwUTAdBgNVHQ4EFgQUHP8uLH7cfoye1Oin+i3mtXWrlhEw
HwYDVR0jBBgwFoAUHP8uLH7cfoye1Oin+i3mtXWrlhEwDwYDVR0TAQH/BAUwAwEB
/zANBgkqhkiG9w0BAQsFAAOCAgEAoBugmBZJ/IEoOxMTAunqQLYf6xHKCvTkCcuZ
1OPjwvxAi18k1P40E8DESZdYs/SueqchwF4s1+v9a/A1lGoAWYVYVAkYUNv1ojhv
cbS1YN5a7+NOus4ertOJ9gK1DomS+J4FOU7rARV08Ocq7Fs4dcISir3tVb60c0FV
zyhjv2QtGNHC6Ga3oKQUJNiDLDuCPuiuXQyLTm/TqLa+c1RknIQR8nAUlXjsVzKE
xD9xZjR7H7j7PFWx8qtlgU+QuvT3PO3A1M1XWVQrMV+EMRpH5n7XnbepIQyDbUob
0Tc7G6UGF+CRUXR7zhDcrBECq9T4hRQNn8hKtpHX2C8IjtwJrNMkQAyoKKetimCZ
dAsGOJgAhxEvqrPvwnGSf9VSO3zroOdPH/Q5dGzsldC9MnBeZA1nWeMzMlChKcfw
2TsyC4hSVpuf0Ckm6VZqAEnV3tgLQqrA3Nq4rIVr9uOQu/o2vfM9SBkf+qqnHj7h
g2Ni2FtHL43WI97l/yS0f4Cb1Q3copcMzzutie268+76xNVEDsvoBu0uYeITbIZB
Sx5uatVIcdNL/zKJktFa8Z31I0I6dlckrP6QqhRhH42QGMC8drY+oHDo/gHnA2VU
lAZXVENU4bHsmSiCruHjKyqylnkn9OU/zpZj3WHKMsNOoRPMtrkeZyBZc9nvivmR
O4FVC8U=
-----END CERTIFICATE-----
