Certificate:
    Data:
        Version: 3 (0x2)
        Serial Number:
            90:8a:ce:3f:67:ac:6b:23
        Signature Algorithm: sha256WithRSAEncryption
        Issuer: CN = Jsign Root Certificate Authority 2022
        Validity
            Not Before: Nov 15 18:15:33 2022 GMT
            Not After : Nov 10 18:15:33 2042 GMT
        Subject: CN = Jsign Root Certificate Authority 2022
        Subject Public Key Info:
            Public Key Algorithm: rsaEncryption
                Public-Key: (4096 bit)
                Modulus:
                    00:a9:94:48:dc:5e:92:cb:50:af:5f:44:f3:5d:0f:
                    94:82:21:07:76:89:61:f5:ef:8b:ef:e4:ee:aa:b4:
                    a2:1c:2d:cb:df:91:10:c6:8e:c3:51:ce:e6:1c:bc:
                    17:4f:ca:76:59:46:5c:cb:59:38:ee:b6:14:ca:d6:
                    99:ed:c9:57:44:43:23:18:0c:83:27:59:86:a7:43:
                    0b:78:75:94:a7:92:0c:64:49:74:d2:3f:1d:46:b7:
                    ed:6b:07:c6:00:38:f6:20:e9:a6:f6:36:6c:3d:09:
                    f3:27:8a:e5:fc:cb:01:e7:58:7f:cf:5d:90:87:b3:
                    2d:9f:55:47:18:ce:fe:c9:57:54:af:45:d5:0d:a2:
                    64:c4:bf:a3:3e:18:40:59:1d:eb:cd:94:8e:23:9c:
                    39:69:b8:15:d9:cd:31:a8:92:5b:b1:3f:cb:df:8d:
                    af:05:0a:ba:2a:0d:50:bc:62:62:59:f0:0b:8f:fb:
                    29:03:7f:46:f7:83:fd:db:1a:0b:01:b5:7a:f0:10:
                    d6:06:7b:08:13:a8:d1:21:ff:a3:bb:b4:84:5f:bc:
                    41:54:50:4d:ea:75:71:e9:b6:af:fc:6e:5a:92:d0:
                    27:a0:5e:41:d1:b4:44:90:2d:ad:28:71:55:9e:d7:
                    22:c8:06:82:3e:57:df:d1:0e:92:33:be:3d:80:ab:
                    c5:8b:e9:be:b6:6b:a9:15:0e:79:53:d2:63:10:4c:
                    e5:89:f4:92:ba:79:4d:be:a0:b1:91:1f:1d:04:27:
                    d3:82:2f:56:67:ff:1b:ea:74:7d:e8:62:87:db:cc:
                    72:fb:39:fb:c5:94:b2:b8:1a:48:0a:61:58:d9:a6:
                    10:7e:cf:60:82:ec:f4:10:38:57:c6:8c:bb:98:3d:
                    ac:7f:e7:e7:7b:8d:0d:a7:49:16:88:51:d5:e3:a3:
                    d9:df:6a:11:99:61:31:54:50:e3:5e:5e:80:55:8a:
                    53:73:e1:45:0e:02:dc:9b:dc:2a:ab:78:e2:09:2d:
                    50:c7:e3:1b:7e:82:ea:27:90:d2:69:b7:69:92:33:
                    2c:aa:06:d6:49:d4:c2:17:ca:0c:cd:a0:27:df:41:
                    2c:67:08:13:3f:0f:33:d8:ec:a1:cf:89:00:c5:e5:
                    de:13:9d:21:9f:e4:a7:12:c7:59:ec:79:4f:9f:60:
                    0d:86:ad:fa:a8:8e:b5:55:56:38:63:0d:0c:40:11:
                    cc:5f:0e:a6:39:50:bc:4c:44:98:d8:0f:e2:59:fd:
                    e2:1e:1d:82:12:49:6d:4d:dc:80:49:85:bb:d1:e2:
                    77:4f:4c:c1:72:6a:03:4f:6f:22:fb:10:f8:e8:72:
                    fd:ad:62:7b:3b:52:dc:d0:71:30:0f:1f:30:da:4b:
                    6b:33:81
                Exponent: 65537 (0x10001)
        X509v3 extensions:
            X509v3 Subject Key Identifier: 
                DB:08:95:99:8E:61:5B:95:0B:07:43:CE:C2:D3:30:E2:03:29:03:3E
            X509v3 Authority Key Identifier: 
                keyid:DB:08:95:99:8E:61:5B:95:0B:07:43:CE:C2:D3:30:E2:03:29:03:3E

            X509v3 Basic Constraints: critical
                CA:TRUE
    Signature Algorithm: sha256WithRSAEncryption
         37:cf:24:69:59:00:64:95:41:11:8e:69:58:4e:ca:89:0f:ff:
         00:92:43:f0:ca:c4:05:d4:c7:f2:90:ee:f1:87:d7:d0:13:23:
         26:96:78:a9:77:c7:73:f2:fc:27:7b:fb:6b:f6:cb:1a:bb:3d:
         0a:ac:93:a9:fe:33:a3:7b:4f:34:52:7c:82:2a:c6:10:64:26:
         c0:28:a0:25:00:24:50:cd:41:4e:1b:32:f9:db:85:c2:00:9f:
         fc:34:8b:96:da:ec:0e:52:43:6a:f9:0e:9d:be:9f:88:a5:54:
         c7:f5:99:89:e4:78:43:0e:f9:ab:09:86:48:6a:35:53:10:2f:
         71:bb:d0:2d:7e:c8:80:d0:68:15:7d:2f:89:59:01:2f:b9:d3:
         04:be:c7:f6:52:e4:72:bf:68:e1:b9:45:95:b0:9f:b5:0f:ef:
         5c:5a:c0:35:7b:bf:75:6b:f8:7f:79:98:f8:fc:0d:ee:fc:48:
         0a:a4:09:c5:e5:26:db:d7:8c:37:68:04:4f:2b:ca:73:03:4b:
         41:1a:b5:79:d1:8f:16:60:6f:ba:ce:7c:e7:89:19:79:ff:00:
         5d:4f:33:8a:d0:cb:b7:c9:ad:c5:ad:64:7b:06:e5:27:17:25:
         a2:6e:d6:35:8a:3c:65:c4:25:ad:c1:4f:0e:01:25:12:bf:f1:
         f7:df:37:95:d6:ed:17:c5:2c:d6:15:bc:3f:89:18:42:45:e2:
         99:12:d9:65:e4:81:a7:c5:37:bc:24:61:b8:fd:03:28:c7:4f:
         80:21:27:29:19:78:85:81:32:59:55:ee:40:20:ef:7b:90:4a:
         43:70:d7:c5:63:a6:a2:16:5f:35:4b:21:c7:60:8b:53:be:f0:
         40:20:95:85:04:c1:42:00:97:60:a7:dd:ff:4c:00:2c:20:d7:
         62:7e:f0:e5:04:73:9e:ce:2d:fa:9e:21:9f:c9:3d:b2:08:bd:
         2c:36:e5:16:3f:0f:d2:aa:3f:f3:ad:11:73:85:fb:d1:52:a9:
         86:7d:c5:a7:47:c9:46:86:7f:f3:a8:a5:43:33:d8:c4:d0:f2:
         1a:e6:04:13:11:ae:ae:12:13:fc:64:e1:43:6d:3e:03:06:a8:
         c7:81:28:a9:c6:5d:05:e0:97:5d:fd:dc:34:20:e8:4b:e3:a5:
         da:45:cb:66:67:cd:4e:97:52:06:52:ce:c0:b5:72:53:73:e8:
         23:85:23:1b:fb:91:33:3f:2f:74:01:25:1f:45:fb:0e:54:81:
         5a:1f:74:ae:89:db:3c:e8:6c:08:e7:27:7e:72:e3:40:cd:34:
         89:57:94:bf:9b:b8:83:4b:d2:62:8b:c1:c1:24:cf:a7:46:80:
         05:a2:36:c5:06:c8:d4:06
-----BEGIN CERTIFICATE-----
MIIFNjCCAx6gAwIBAgIJAJCKzj9nrGsjMA0GCSqGSIb3DQEBCwUAMDAxLjAsBgNV
BAMMJUpzaWduIFJvb3QgQ2VydGlmaWNhdGUgQXV0aG9yaXR5IDIwMjIwHhcNMjIx
MTE1MTgxNTMzWhcNNDIxMTEwMTgxNTMzWjAwMS4wLAYDVQQDDCVKc2lnbiBSb290
IENlcnRpZmljYXRlIEF1dGhvcml0eSAyMDIyMIICIjANBgkqhkiG9w0BAQEFAAOC
Ag8AMIICCgKCAgEAqZRI3F6Sy1CvX0TzXQ+UgiEHdolh9e+L7+TuqrSiHC3L35EQ
xo7DUc7mHLwXT8p2WUZcy1k47rYUytaZ7clXREMjGAyDJ1mGp0MLeHWUp5IMZEl0
0j8dRrftawfGADj2IOmm9jZsPQnzJ4rl/MsB51h/z12Qh7Mtn1VHGM7+yVdUr0XV
DaJkxL+jPhhAWR3rzZSOI5w5abgV2c0xqJJbsT/L342vBQq6Kg1QvGJiWfALj/sp
A39G94P92xoLAbV68BDWBnsIE6jRIf+ju7SEX7xBVFBN6nVx6bav/G5aktAnoF5B
0bREkC2tKHFVntciyAaCPlff0Q6SM749gKvFi+m+tmupFQ55U9JjEEzlifSSunlN
vqCxkR8dBCfTgi9WZ/8b6nR96GKH28xy+zn7xZSyuBpICmFY2aYQfs9gguz0EDhX
xoy7mD2sf+fne40Np0kWiFHV46PZ32oRmWExVFDjXl6AVYpTc+FFDgLcm9wqq3ji
CS1Qx+MbfoLqJ5DSabdpkjMsqgbWSdTCF8oMzaAn30EsZwgTPw8z2Oyhz4kAxeXe
E50hn+SnEsdZ7HlPn2ANhq36qI61VVY4Yw0MQBHMXw6mOVC8TESY2A/iWf3iHh2C
EkltTdyASYW70eJ3T0zBcmoDT28i+xD46HL9rWJ7O1Lc0HEwDx8w2ktrM4ECAwEA
AaNTMFEwHQYDVR0OBBYEFNsIlZmOYVuVCwdDzsLTMOIDKQM+MB8GA1UdIwQYMBaA
FNsIlZmOYVuVCwdDzsLTMOIDKQM+MA8GA1UdEwEB/wQFMAMBAf8wDQYJKoZIhvcN
AQELBQADggIBADfPJGlZAGSVQRGOaVhOyokP/wCSQ/DKxAXUx/KQ7vGH19ATIyaW
eKl3x3Py/Cd7+2v2yxq7PQqsk6n+M6N7TzRSfIIqxhBkJsAooCUAJFDNQU4bMvnb
hcIAn/w0i5ba7A5SQ2r5Dp2+n4ilVMf1mYnkeEMO+asJhkhqNVMQL3G70C1+yIDQ
aBV9L4lZAS+50wS+x/ZS5HK/aOG5RZWwn7UP71xawDV7v3Vr+H95mPj8De78SAqk
CcXlJtvXjDdoBE8rynMDS0EatXnRjxZgb7rOfOeJGXn/AF1PM4rQy7fJrcWtZHsG
5ScXJaJu1jWKPGXEJa3BTw4BJRK/8fffN5XW7RfFLNYVvD+JGEJF4pkS2WXkgafF
N7wkYbj9AyjHT4AhJykZeIWBMllV7kAg73uQSkNw18VjpqIWXzVLIcdgi1O+8EAg
lYUEwUIAl2Cn3f9MACwg12J+8OUEc57OLfqeIZ/JPbIIvSw25RY/D9KqP/OtEXOF
+9FSqYZ9xadHyUaGf/OopUMz2MTQ8hrmBBMRrq4SE/xk4UNtPgMGqMeBKKnGXQXg
l1393DQg6EvjpdpFy2ZnzU6XUgZSzsC1clNz6COFIxv7kTM/L3QBJR9F+w5UgVof
dK6J2zzobAjnJ35y40DNNIlXlL+buINL0mKLwcEkz6dGgAWiNsUGyNQG
-----END CERTIFICATE-----
Certificate:
    Data:
        Version: 3 (0x2)
        Serial Number:
            c9:32:60:50:4f:cc:62:d9
        Signature Algorithm: sha256WithRSAEncryption
        Issuer: CN = Jsign Root Certificate Authority 2022
        Validity
            Not Before: Nov 15 18:15:33 2022 GMT
            Not After : Nov 10 18:15:33 2042 GMT
        Subject: CN = Jsign Code Signing CA 2022
        Subject Public Key Info:
            Public Key Algorithm: rsaEncryption
                Public-Key: (2048 bit)
                Modulus:
                    00:ba:62:c5:91:9f:c5:96:a5:17:da:5e:99:8f:3c:
                    03:41:3d:1e:93:a7:c5:93:4e:3c:77:86:d3:9e:2f:
                    9b:44:90:36:fa:fc:eb:9c:a0:1e:45:d8:71:66:40:
                    ff:24:59:d9:21:50:fd:8f:7c:35:ed:9b:b8:ee:60:
                    5f:3e:da:ec:e3:ab:17:5a:b3:b0:81:88:a3:b6:f5:
                    a7:ab:9e:15:8b:61:6f:51:03:28:0a:c0:ea:d1:22:
                    7a:20:f3:1c:8d:4f:6c:d1:9b:b0:60:70:0d:97:d5:
                    30:37:88:2f:4d:37:98:cb:a0:16:4d:2d:20:00:e6:
                    04:48:43:6f:18:11:6b:eb:4c:27:50:a2:37:a6:59:
                    c1:48:52:75:7e:3a:58:63:da:87:42:fe:ab:e2:30:
                    d1:be:a7:6c:c9:7f:af:7d:11:db:4b:ad:28:8a:7c:
                    48:f0:a0:e4:9b:ad:3a:a0:4c:19:7b:8d:83:d0:84:
                    2c:81:d3:b2:47:59:91:c0:35:05:c2:ad:5b:55:5b:
                    73:db:e5:a1:69:5f:bd:f5:aa:f1:76:da:da:9a:89:
                    ee:9c:95:fd:48:89:22:33:81:cd:d1:99:4f:6f:9c:
                    8e:c8:dc:7c:94:f6:d2:2f:2d:ff:4a:3f:b0:e3:52:
                    d3:a5:b0:29:bc:fd:d0:e1:96:31:cf:16:f7:3d:1d:
                    a8:19
                Exponent: 65537 (0x10001)
        X509v3 extensions:
            X509v3 Basic Constraints: 
                CA:TRUE, pathlen:0
            X509v3 Key Usage: 
                Certificate Sign, CRL Sign
            X509v3 Extended Key Usage: 
                Code Signing
            X509v3 Subject Key Identifier: 
                9F:69:36:9D:27:A8:1C:79:6C:88:4B:09:91:7A:10:79:7F:66:77:DA
            X509v3 Authority Key Identifier: 
                keyid:DB:08:95:99:8E:61:5B:95:0B:07:43:CE:C2:D3:30:E2:03:29:03:3E

    Signature Algorithm: sha256WithRSAEncryption
         13:84:3f:02:18:0f:bf:4f:f7:dd:c3:88:c5:5a:ce:32:14:29:
         e4:a4:31:4e:62:70:80:b3:4c:ef:cd:8d:c6:9c:df:5d:43:54:
         63:c0:9d:94:b4:21:e0:f0:a2:22:77:db:51:f3:db:cc:9d:88:
         32:93:82:6c:b7:de:3c:15:a5:ab:d7:ba:b3:55:12:f9:03:0b:
         8a:78:4f:31:5b:66:b9:8b:5f:0b:c3:64:b0:b3:30:1a:7d:cc:
         b0:49:91:1e:b8:6b:44:e7:cc:e5:db:78:32:99:f1:f5:00:35:
         b0:87:c0:be:55:50:cb:30:25:f5:a4:54:17:35:d0:be:dc:c0:
         0c:b3:be:7f:41:87:ba:db:96:1a:0e:87:70:e8:c8:e4:4c:31:
         c8:af:dc:98:f9:44:db:8d:e3:c4:26:13:17:38:4d:34:a7:02:
         87:7b:fe:64:84:aa:e0:68:41:82:20:d7:08:15:c5:36:0a:d6:
         f0:18:a9:bb:71:b2:35:72:3a:1e:70:61:8e:f9:b3:1d:af:31:
         5c:f3:a9:13:80:6d:5b:4d:42:d8:53:19:bf:13:40:e3:dd:40:
         4b:b3:4b:37:5a:35:f7:a5:cc:69:b9:cc:90:dd:0e:6d:95:60:
         38:e6:f5:cc:a8:e7:cf:e1:02:7c:9b:44:0e:8a:6a:7c:06:bf:
         1e:3b:20:20:c7:7e:c4:b5:78:6a:37:58:59:d7:aa:63:31:86:
         33:82:78:a0:64:ad:8c:eb:ff:88:25:b1:c2:7f:5c:7e:a2:9b:
         9b:f5:fb:17:6d:9f:23:74:1c:03:2d:20:6a:ce:01:c5:85:24:
         ba:36:31:52:3b:a0:81:26:80:c9:f7:07:57:2e:40:99:2f:a3:
         01:db:b8:c5:8a:3f:28:e5:0b:49:ba:5e:4b:b8:10:9e:15:b9:
         3c:9a:81:b0:37:71:39:fd:4e:9f:6f:f9:5e:c1:bf:3e:a4:f4:
         e5:be:c4:27:9d:25:45:7b:5d:d7:14:5f:4c:59:6c:3a:1b:79:
         b8:f1:ca:56:6c:3e:06:ba:de:c1:6e:37:a6:ad:6a:9c:b3:ff:
         79:e0:69:98:35:f1:d4:90:06:e0:e6:c4:95:c3:f7:93:fd:b6:
         02:c1:7b:c5:8f:f6:7c:71:71:bd:a7:4b:d1:59:66:de:5c:10:
         28:ba:7a:79:94:71:15:49:10:71:3b:13:3f:a2:22:6c:5d:34:
         57:2d:37:43:ad:8e:a0:8b:14:41:fa:a5:5c:ce:b4:b9:51:2d:
         06:49:4f:61:38:f5:a3:e1:82:79:34:33:da:35:f2:1d:a6:11:
         16:38:ad:b2:50:00:40:69:86:55:fa:c0:08:d3:ff:40:53:91:
         58:a2:87:d2:b9:fd:80:b8
-----BEGIN CERTIFICATE-----
MIIETTCCAjWgAwIBAgIJAMkyYFBPzGLZMA0GCSqGSIb3DQEBCwUAMDAxLjAsBgNV
BAMMJUpzaWduIFJvb3QgQ2VydGlmaWNhdGUgQXV0aG9yaXR5IDIwMjIwHhcNMjIx
MTE1MTgxNTMzWhcNNDIxMTEwMTgxNTMzWjAlMSMwIQYDVQQDDBpKc2lnbiBDb2Rl
IFNpZ25pbmcgQ0EgMjAyMjCCASIwDQYJKoZIhvcNAQEBBQADggEPADCCAQoCggEB
ALpixZGfxZalF9pemY88A0E9HpOnxZNOPHeG054vm0SQNvr865ygHkXYcWZA/yRZ
2SFQ/Y98Ne2buO5gXz7a7OOrF1qzsIGIo7b1p6ueFYthb1EDKArA6tEieiDzHI1P
bNGbsGBwDZfVMDeIL003mMugFk0tIADmBEhDbxgRa+tMJ1CiN6ZZwUhSdX46WGPa
h0L+q+Iw0b6nbMl/r30R20utKIp8SPCg5JutOqBMGXuNg9CELIHTskdZkcA1BcKt
W1Vbc9vloWlfvfWq8Xba2pqJ7pyV/UiJIjOBzdGZT2+cjsjcfJT20i8t/0o/sONS
06WwKbz90OGWMc8W9z0dqBkCAwEAAaN1MHMwDwYDVR0TBAgwBgEB/wIBADALBgNV
HQ8EBAMCAQYwEwYDVR0lBAwwCgYIKwYBBQUHAwMwHQYDVR0OBBYEFJ9pNp0nqBx5
bIhLCZF6EHl/ZnfaMB8GA1UdIwQYMBaAFNsIlZmOYVuVCwdDzsLTMOIDKQM+MA0G
CSqGSIb3DQEBCwUAA4ICAQAThD8CGA+/T/fdw4jFWs4yFCnkpDFOYnCAs0zvzY3G
nN9dQ1RjwJ2UtCHg8KIid9tR89vMnYgyk4Jst948FaWr17qzVRL5AwuKeE8xW2a5
i18Lw2SwszAafcywSZEeuGtE58zl23gymfH1ADWwh8C+VVDLMCX1pFQXNdC+3MAM
s75/QYe625YaDodw6MjkTDHIr9yY+UTbjePEJhMXOE00pwKHe/5khKrgaEGCINcI
FcU2CtbwGKm7cbI1cjoecGGO+bMdrzFc86kTgG1bTULYUxm/E0Dj3UBLs0s3WjX3
pcxpucyQ3Q5tlWA45vXMqOfP4QJ8m0QOimp8Br8eOyAgx37EtXhqN1hZ16pjMYYz
gnigZK2M6/+IJbHCf1x+opub9fsXbZ8jdBwDLSBqzgHFhSS6NjFSO6CBJoDJ9wdX
LkCZL6MB27jFij8o5QtJul5LuBCeFbk8moGwN3E5/U6fb/lewb8+pPTlvsQnnSVF
e13XFF9MWWw6G3m48cpWbD4Gut7BbjemrWqcs/954GmYNfHUkAbg5sSVw/eT/bYC
wXvFj/Z8cXG9p0vRWWbeXBAounp5lHEVSRBxOxM/oiJsXTRXLTdDrY6gixRB+qVc
zrS5US0GSU9hOPWj4YJ5NDPaNfIdphEWOK2yUABAaYZV+sAI0/9AU5FYoofSuf2A
uA==
-----END CERTIFICATE-----
