Certificate:
    Data:
        Version: 3 (0x2)
        Serial Number:
            69:d3:68:4b:6e:00:d3:f9:97:32:f2:f9:87:dd:af:34:60:b9:b8:e4
        Signature Algorithm: sha256WithRSAEncryption
        Issuer: CN = Jsign Self Signed Certificate 2025
        Validity
            Not Before: Sep 19 12:03:57 2025 GMT
            Not After : Sep 19 12:03:57 2045 GMT
        Subject: CN = Jsign Self Signed Certificate 2025
        Subject Public Key Info:
            Public Key Algorithm: rsaEncryption
                Public-Key: (2048 bit)
                Modulus:
                    00:a6:90:52:e5:90:ac:79:c7:ca:39:1d:87:05:9d:
                    a9:3f:96:d2:0f:6d:ea:f4:e7:42:65:38:cb:f5:e9:
                    83:9c:2c:17:53:51:32:1d:ae:8c:b8:fb:3d:0c:7e:
                    fa:5e:df:64:9c:77:bc:2d:49:27:5f:d1:33:a0:95:
                    14:16:2e:6b:32:f0:7c:38:e5:e3:f3:63:e2:78:25:
                    8a:df:a2:8c:e2:6d:5e:70:71:48:62:29:29:94:da:
                    39:1c:3d:69:87:0c:22:f1:d1:8b:16:45:aa:95:48:
                    7c:0d:08:ee:08:c4:07:f5:a4:23:a1:ea:f9:e3:ee:
                    d1:91:80:36:8a:e0:80:9c:7f:40:fe:48:84:13:f3:
                    29:29:af:fb:cd:dc:40:0f:79:e0:93:7c:12:37:72:
                    b8:cc:d5:b3:64:aa:3b:28:14:6c:a3:5a:8b:88:e5:
                    9a:2b:44:53:22:81:ff:6f:64:f6:9a:3e:f7:da:49:
                    dc:a5:10:7b:e0:47:96:2d:df:c8:41:4d:cd:47:4f:
                    f6:70:7a:15:4c:3e:f6:4a:38:f3:f0:b4:ab:ba:8a:
                    7a:b2:a4:9d:85:b7:ca:c6:70:0f:bd:16:31:de:34:
                    6b:fe:14:d5:c0:01:48:56:d5:bf:22:15:01:ae:1d:
                    c5:1a:1c:a3:9d:86:92:df:b1:d4:68:4e:0b:3b:4b:
                    b5:0f
                Exponent: 65537 (0x10001)
        X509v3 extensions:
            X509v3 Subject Key Identifier: 
                12:C4:8A:0E:6F:16:47:F1:B2:1F:CE:7B:2F:30:E6:27:28:31:34:93
            X509v3 Authority Key Identifier: 
                12:C4:8A:0E:6F:16:47:F1:B2:1F:CE:7B:2F:30:E6:27:28:31:34:93
            X509v3 Basic Constraints: critical
                CA:TRUE
    Signature Algorithm: sha256WithRSAEncryption
    Signature Value:
        7d:27:98:b2:a8:e8:12:34:f5:c4:b7:98:90:1a:36:aa:32:c9:
        e6:6d:f1:fb:f0:25:bc:86:93:42:57:ed:16:65:20:0a:eb:45:
        cf:ec:12:f9:a3:ca:08:d3:5f:83:41:03:56:5e:90:d1:ec:08:
        7f:ba:20:13:8c:29:de:1b:45:5c:27:22:47:86:f7:4f:95:36:
        f8:74:40:f7:c7:62:f1:9d:30:ba:f1:c1:ea:f2:12:d4:a0:49:
        f2:2e:5c:dd:d4:95:8d:e2:d9:09:08:5d:e6:8d:77:c7:ee:98:
        a9:27:63:e6:6c:59:d6:c2:88:ad:59:4a:00:ac:de:85:3a:4e:
        d1:82:ab:d3:32:aa:f8:e0:68:94:93:79:e9:82:c2:3a:5b:88:
        b7:5b:b3:69:4d:f6:af:05:8f:e6:92:d4:fb:cb:51:06:75:ef:
        fb:23:6e:6b:ed:ec:60:91:06:8a:e6:21:fe:ec:1f:0c:50:30:
        4d:a3:4a:a3:d1:88:61:e5:ad:e4:4d:fa:d9:09:bc:16:10:c7:
        ae:75:4f:be:6d:76:62:94:fc:6d:c5:66:53:32:48:4c:6a:c0:
        e3:5f:a6:bd:4e:af:27:49:19:dc:61:42:bc:06:0b:c5:39:b6:
        45:9d:52:e8:d8:fb:2d:10:26:60:af:5f:30:81:7f:83:83:d1:
        1e:36:c9:96
-----BEGIN CERTIFICATE-----
MIIDOzCCAiOgAwIBAgIUadNoS24A0/mXMvL5h92vNGC5uOQwDQYJKoZIhvcNAQEL
BQAwLTErMCkGA1UEAwwiSnNpZ24gU2VsZiBTaWduZWQgQ2VydGlmaWNhdGUgMjAy
NTAeFw0yNTA5MTkxMjAzNTdaFw00NTA5MTkxMjAzNTdaMC0xKzApBgNVBAMMIkpz
aWduIFNlbGYgU2lnbmVkIENlcnRpZmljYXRlIDIwMjUwggEiMA0GCSqGSIb3DQEB
AQUAA4IBDwAwggEKAoIBAQCmkFLlkKx5x8o5HYcFnak/ltIPber050JlOMv16YOc
LBdTUTIdroy4+z0Mfvpe32Scd7wtSSdf0TOglRQWLmsy8Hw45ePzY+J4JYrfoozi
bV5wcUhiKSmU2jkcPWmHDCLx0YsWRaqVSHwNCO4IxAf1pCOh6vnj7tGRgDaK4ICc
f0D+SIQT8ykpr/vN3EAPeeCTfBI3crjM1bNkqjsoFGyjWouI5ZorRFMigf9vZPaa
PvfaSdylEHvgR5Yt38hBTc1HT/ZwehVMPvZKOPPwtKu6inqypJ2Ft8rGcA+9FjHe
NGv+FNXAAUhW1b8iFQGuHcUaHKOdhpLfsdRoTgs7S7UPAgMBAAGjUzBRMB0GA1Ud
DgQWBBQSxIoObxZH8bIfznsvMOYnKDE0kzAfBgNVHSMEGDAWgBQSxIoObxZH8bIf
znsvMOYnKDE0kzAPBgNVHRMBAf8EBTADAQH/MA0GCSqGSIb3DQEBCwUAA4IBAQB9
J5iyqOgSNPXEt5iQGjaqMsnmbfH78CW8hpNCV+0WZSAK60XP7BL5o8oI01+DQQNW
XpDR7Ah/uiATjCneG0VcJyJHhvdPlTb4dED3x2LxnTC68cHq8hLUoEnyLlzd1JWN
4tkJCF3mjXfH7pipJ2PmbFnWwoitWUoArN6FOk7RgqvTMqr44GiUk3npgsI6W4i3
W7NpTfavBY/mktT7y1EGde/7I25r7exgkQaK5iH+7B8MUDBNo0qj0Yhh5a3kTfrZ
CbwWEMeudU++bXZilPxtxWZTMkhMasDjX6a9Tq8nSRncYUK8BgvFObZFnVLo2Pst
ECZgr18wgX+Dg9EeNsmW
-----END CERTIFICATE-----
