Certificate:
    Data:
        Version: 3 (0x2)
        Serial Number:
            16:60:f6:78:e9:1f:05:9a:9b:d3:98:5c:c6:a8:e9:53:7f:ca:a8:42
        Signature Algorithm: sha256WithRSAEncryption
        Issuer: CN = Jsign Root Certificate Authority
        Validity
            Not Before: Oct 24 21:19:21 2021 GMT
            Not After : Oct 19 21:19:21 2041 GMT
        Subject: CN = Jsign Root Certificate Authority
        Subject Public Key Info:
            Public Key Algorithm: rsaEncryption
                RSA Public-Key: (2048 bit)
                Modulus:
                    00:b6:78:42:9f:24:75:7b:c2:d5:5b:4d:9d:15:f7:
                    4c:2b:0b:7b:13:3c:c7:37:84:a6:d2:3c:d9:cf:53:
                    5c:36:94:6b:1e:1b:ba:f1:79:6a:34:73:24:b5:ce:
                    95:2c:93:55:11:50:06:17:05:77:d3:c7:d4:51:64:
                    57:c6:fe:05:32:3b:c8:f0:a3:66:5d:24:50:6e:32:
                    87:de:4c:0c:5c:42:f0:c6:95:53:4c:1e:a7:64:02:
                    fa:51:7a:94:3c:e8:25:e3:54:6e:1e:e6:f1:f4:26:
                    53:b7:2a:1c:c6:da:ab:c0:3d:62:98:2d:d7:d7:1e:
                    ee:a5:99:bb:da:7c:3a:d2:69:63:b9:e2:81:2f:0b:
                    9a:f3:e9:0e:cc:e4:3a:ce:30:75:ad:b0:2c:dc:dd:
                    74:63:ca:f9:5e:a1:e6:25:29:7b:a6:aa:ca:05:58:
                    ef:61:6c:da:4a:df:40:66:74:de:fc:24:b6:cb:2c:
                    b2:30:ca:39:c0:d2:c8:a9:e3:5f:a5:e9:d2:25:5b:
                    a3:70:7c:4f:0f:c4:14:e5:a4:9d:4f:21:4a:dd:ee:
                    ae:73:57:8c:f8:36:b7:34:a6:ba:1b:3c:b8:1c:93:
                    55:dc:42:3c:99:91:42:e7:fa:4b:44:4a:0b:8d:8c:
                    ca:2a:38:e1:75:17:a3:55:20:ea:3e:ae:fe:2b:37:
                    e0:fd
                Exponent: 65537 (0x10001)
        X509v3 extensions:
            X509v3 Subject Key Identifier: 
                14:75:C5:84:5C:E3:FA:88:47:BF:C2:DF:27:00:AA:07:89:DA:1C:4A
            X509v3 Authority Key Identifier: 
                keyid:14:75:C5:84:5C:E3:FA:88:47:BF:C2:DF:27:00:AA:07:89:DA:1C:4A

            X509v3 Basic Constraints: critical
                CA:TRUE
    Signature Algorithm: sha256WithRSAEncryption
         a0:31:14:a6:dd:e9:a1:a8:12:7a:69:44:4b:f6:89:55:c5:98:
         40:62:ac:54:29:a3:bb:2a:0d:56:d8:67:f3:f2:34:de:ac:66:
         9f:f1:11:54:1d:f0:96:bd:84:e4:79:24:9b:a7:03:c2:8b:87:
         fd:d7:a5:75:35:6a:22:b8:e8:a5:e5:f6:74:2c:d0:2d:48:f5:
         28:c8:ff:b1:98:95:e9:fd:8f:34:39:09:fc:a0:f8:dd:47:31:
         87:6b:d8:55:a5:2f:3e:fb:ba:e5:77:87:1f:c7:6c:5c:be:c7:
         78:62:2b:fb:c3:bc:89:9a:cd:ce:38:b0:ef:f0:9a:d2:d7:f7:
         03:86:00:03:a8:43:93:c8:9c:dd:21:f8:90:15:01:68:d7:81:
         f9:8f:5c:1e:04:dd:76:31:f6:11:fd:80:da:b6:c5:78:1f:00:
         c6:19:27:32:d3:25:7d:0f:51:68:ff:26:31:dd:cc:3b:33:e0:
         9a:58:b1:1f:77:31:99:da:da:f5:bb:3f:64:60:7b:b9:54:c6:
         89:ee:cf:6b:a5:c1:98:57:be:86:38:c7:cb:3d:e9:6f:07:35:
         69:3b:03:88:c3:80:83:91:0a:f6:02:3d:b7:31:db:c6:66:ae:
         4e:f1:cc:0d:ee:be:02:1e:6f:0d:5f:8f:de:0e:6b:3c:98:66:
         29:2b:1d:f4
-----BEGIN CERTIFICATE-----
MIIDNzCCAh+gAwIBAgIUFmD2eOkfBZqb05hcxqjpU3/KqEIwDQYJKoZIhvcNAQEL
BQAwKzEpMCcGA1UEAwwgSnNpZ24gUm9vdCBDZXJ0aWZpY2F0ZSBBdXRob3JpdHkw
HhcNMjExMDI0MjExOTIxWhcNNDExMDE5MjExOTIxWjArMSkwJwYDVQQDDCBKc2ln
biBSb290IENlcnRpZmljYXRlIEF1dGhvcml0eTCCASIwDQYJKoZIhvcNAQEBBQAD
ggEPADCCAQoCggEBALZ4Qp8kdXvC1VtNnRX3TCsLexM8xzeEptI82c9TXDaUax4b
uvF5ajRzJLXOlSyTVRFQBhcFd9PH1FFkV8b+BTI7yPCjZl0kUG4yh95MDFxC8MaV
U0wep2QC+lF6lDzoJeNUbh7m8fQmU7cqHMbaq8A9Ypgt19ce7qWZu9p8OtJpY7ni
gS8LmvPpDszkOs4wda2wLNzddGPK+V6h5iUpe6aqygVY72Fs2krfQGZ03vwktsss
sjDKOcDSyKnjX6Xp0iVbo3B8Tw/EFOWknU8hSt3urnNXjPg2tzSmuhs8uByTVdxC
PJmRQuf6S0RKC42Myio44XUXo1Ug6j6u/is34P0CAwEAAaNTMFEwHQYDVR0OBBYE
FBR1xYRc4/qIR7/C3ycAqgeJ2hxKMB8GA1UdIwQYMBaAFBR1xYRc4/qIR7/C3ycA
qgeJ2hxKMA8GA1UdEwEB/wQFMAMBAf8wDQYJKoZIhvcNAQELBQADggEBAKAxFKbd
6aGoEnppREv2iVXFmEBirFQpo7sqDVbYZ/PyNN6sZp/xEVQd8Ja9hOR5JJunA8KL
h/3XpXU1aiK46KXl9nQs0C1I9SjI/7GYlen9jzQ5Cfyg+N1HMYdr2FWlLz77uuV3
hx/HbFy+x3hiK/vDvImazc44sO/wmtLX9wOGAAOoQ5PInN0h+JAVAWjXgfmPXB4E
3XYx9hH9gNq2xXgfAMYZJzLTJX0PUWj/JjHdzDsz4JpYsR93MZna2vW7P2Rge7lU
xonuz2ulwZhXvoY4x8s96W8HNWk7A4jDgIORCvYCPbcx28Zmrk7xzA3uvgIebw1f
j94OazyYZikrHfQ=
-----END CERTIFICATE-----
Certificate:
    Data:
        Version: 3 (0x2)
        Serial Number:
            7d:87:ba:69:12:49:d7:0c:cc:df:5d:1b:24:78:56:fd:64:10:b2:08
        Signature Algorithm: sha256WithRSAEncryption
        Issuer: CN = Jsign Root Certificate Authority
        Validity
            Not Before: Oct 24 21:19:21 2021 GMT
            Not After : Oct 19 21:19:21 2041 GMT
        Subject: CN = Jsign Code Signing CA
        Subject Public Key Info:
            Public Key Algorithm: rsaEncryption
                RSA Public-Key: (2048 bit)
                Modulus:
                    00:a0:39:d9:5a:3c:a1:2a:c3:0e:27:29:1a:d7:ba:
                    15:d0:5c:fd:15:60:48:df:8a:99:79:b6:6a:9b:37:
                    05:4d:23:ca:e8:96:2c:01:4d:26:e0:ef:e9:ea:a1:
                    00:47:19:2e:85:0e:20:0a:4d:e9:f6:23:c7:6d:c8:
                    c5:2c:bc:f0:ac:8f:a3:b0:6d:cc:32:2d:eb:0d:ea:
                    f6:e6:0f:3b:c5:34:9f:78:51:0b:30:13:15:f6:94:
                    72:93:c0:3a:6e:42:ac:1b:57:e2:8c:f2:c8:61:1f:
                    21:a8:db:58:21:8d:e7:4c:68:05:d5:11:1e:56:1b:
                    c1:58:36:95:98:ec:a9:e4:f4:40:51:4a:27:3c:c3:
                    31:50:25:4c:37:14:6b:e2:e2:03:28:01:22:19:0c:
                    1c:a8:d0:ca:b5:20:0d:c8:54:e6:00:d7:75:fe:ec:
                    d3:0f:4f:4c:5f:93:9f:55:8e:9e:0e:6a:de:c4:48:
                    8b:3b:ca:5b:ab:d1:17:07:77:ae:1b:d7:c5:d3:60:
                    00:4a:5b:db:57:01:f9:85:8e:22:49:ba:74:ec:6b:
                    32:27:9e:76:d1:ec:53:79:9b:a4:0f:71:c9:e4:ee:
                    0b:4f:0c:6b:0b:e3:d0:56:c6:78:76:69:d0:d1:eb:
                    66:f5:b9:69:9c:00:24:2d:22:76:b6:25:8f:49:96:
                    0b:3d
                Exponent: 65537 (0x10001)
        X509v3 extensions:
            X509v3 Basic Constraints: 
                CA:TRUE, pathlen:0
            X509v3 Key Usage: 
                Certificate Sign, CRL Sign
            X509v3 Extended Key Usage: 
                Code Signing
            X509v3 Subject Key Identifier: 
                04:D0:EB:70:91:45:5E:42:1E:03:27:49:44:4D:4B:74:B3:35:5D:02
            X509v3 Authority Key Identifier: 
                keyid:14:75:C5:84:5C:E3:FA:88:47:BF:C2:DF:27:00:AA:07:89:DA:1C:4A

    Signature Algorithm: sha256WithRSAEncryption
         ab:1a:2c:55:31:34:5e:8f:6c:21:0e:b2:a5:e6:4d:d5:7e:99:
         4b:f2:87:45:15:f4:8c:21:5a:df:bb:f7:35:c0:5d:de:a9:bd:
         de:91:19:3f:7d:46:8d:f4:89:a4:4b:b8:af:fd:06:52:52:88:
         8e:3e:c7:d3:f5:ec:10:3a:09:4e:2a:12:f3:d5:35:c0:88:9e:
         7c:1b:b7:2b:25:8c:08:80:b5:b7:fb:4e:f7:7e:3b:e8:6b:6e:
         b3:af:5b:29:ae:29:28:ea:7c:c2:33:bc:64:9f:c9:87:1d:cc:
         23:b6:ad:67:68:c5:42:07:36:f7:37:12:83:d6:f3:f2:5a:5a:
         ba:b0:eb:60:8f:28:c7:65:44:ca:51:1a:10:7d:64:66:ec:26:
         66:e5:0a:8e:1a:8a:0a:b5:d5:8b:db:25:8f:0d:81:45:dd:71:
         6b:f0:bf:2e:3f:40:e1:bc:ca:f6:9c:6a:4f:93:d8:4a:ac:72:
         e9:b0:a5:60:f9:65:76:4a:cb:47:10:00:36:f8:85:a7:e5:6e:
         99:a7:a8:af:06:b8:fd:f0:30:e3:0f:3c:1f:9d:5c:8f:dd:e0:
         2f:87:1b:f3:a8:a4:a4:8e:1b:6d:2d:9f:1d:72:21:bf:48:53:
         cc:31:75:1e:35:50:6d:da:a0:09:46:2a:e8:42:08:9e:30:ef:
         3e:74:ff:a1
-----BEGIN CERTIFICATE-----
MIIDTjCCAjagAwIBAgIUfYe6aRJJ1wzM310bJHhW/WQQsggwDQYJKoZIhvcNAQEL
BQAwKzEpMCcGA1UEAwwgSnNpZ24gUm9vdCBDZXJ0aWZpY2F0ZSBBdXRob3JpdHkw
HhcNMjExMDI0MjExOTIxWhcNNDExMDE5MjExOTIxWjAgMR4wHAYDVQQDDBVKc2ln
biBDb2RlIFNpZ25pbmcgQ0EwggEiMA0GCSqGSIb3DQEBAQUAA4IBDwAwggEKAoIB
AQCgOdlaPKEqww4nKRrXuhXQXP0VYEjfipl5tmqbNwVNI8roliwBTSbg7+nqoQBH
GS6FDiAKTen2I8dtyMUsvPCsj6OwbcwyLesN6vbmDzvFNJ94UQswExX2lHKTwDpu
QqwbV+KM8shhHyGo21ghjedMaAXVER5WG8FYNpWY7Knk9EBRSic8wzFQJUw3FGvi
4gMoASIZDByo0Mq1IA3IVOYA13X+7NMPT0xfk59Vjp4Oat7ESIs7ylur0RcHd64b
18XTYABKW9tXAfmFjiJJunTsazInnnbR7FN5m6QPccnk7gtPDGsL49BWxnh2adDR
62b1uWmcACQtIna2JY9Jlgs9AgMBAAGjdTBzMA8GA1UdEwQIMAYBAf8CAQAwCwYD
VR0PBAQDAgEGMBMGA1UdJQQMMAoGCCsGAQUFBwMDMB0GA1UdDgQWBBQE0OtwkUVe
Qh4DJ0lETUt0szVdAjAfBgNVHSMEGDAWgBQUdcWEXOP6iEe/wt8nAKoHidocSjAN
BgkqhkiG9w0BAQsFAAOCAQEAqxosVTE0Xo9sIQ6ypeZN1X6ZS/KHRRX0jCFa37v3
NcBd3qm93pEZP31GjfSJpEu4r/0GUlKIjj7H0/XsEDoJTioS89U1wIiefBu3KyWM
CIC1t/tO93476Gtus69bKa4pKOp8wjO8ZJ/Jhx3MI7atZ2jFQgc29zcSg9bz8lpa
urDrYI8ox2VEylEaEH1kZuwmZuUKjhqKCrXVi9sljw2BRd1xa/C/Lj9A4bzK9pxq
T5PYSqxy6bClYPlldkrLRxAANviFp+Vumaeorwa4/fAw4w88H51cj93gL4cb86ik
pI4bbS2fHXIhv0hTzDF1HjVQbdqgCUYq6EIInjDvPnT/oQ==
-----END CERTIFICATE-----
Certificate:
    Data:
        Version: 3 (0x2)
        Serial Number:
            3e:8b:98:83:e4:ea:99:17:a5:65:2e:c8:ae:e8:3f:38:ce:f0:e8:93
        Signature Algorithm: sha256WithRSAEncryption
        Issuer: CN = Jsign Code Signing CA
        Validity
            Not Before: Oct 24 21:19:21 2021 GMT
            Not After : Oct 19 21:19:21 2041 GMT
        Subject: CN = Jsign Code Signing Test Certificate (RSA)
        Subject Public Key Info:
            Public Key Algorithm: rsaEncryption
                RSA Public-Key: (1024 bit)
                Modulus:
                    00:9a:30:8a:0a:2b:91:e4:d3:12:85:a4:da:89:01:
                    f3:d4:df:b5:98:28:b2:75:03:91:ba:a8:76:62:6a:
                    ce:94:6f:a5:58:19:26:e0:67:92:8b:22:9a:bd:fb:
                    f5:3a:86:55:e3:24:61:01:ad:7f:58:e5:a0:7f:be:
                    c6:f7:72:6f:cc:57:da:bd:1b:f8:a5:a2:82:05:b0:
                    5b:38:26:9f:44:20:91:00:04:91:c5:3d:1a:68:d6:
                    26:77:9d:f0:21:3e:22:f5:16:50:c7:a6:17:53:90:
                    09:b0:37:50:8f:ce:5e:e9:a3:25:7b:a8:08:77:e7:
                    5e:d3:35:b8:91:8f:23:16:ed
                Exponent: 65537 (0x10001)
        X509v3 extensions:
            X509v3 Basic Constraints: 
                CA:FALSE
            X509v3 Key Usage: 
                Digital Signature
            X509v3 Extended Key Usage: 
                Code Signing
            X509v3 Subject Key Identifier: 
                29:EF:5F:1C:9C:66:0A:23:0B:D4:14:60:75:CC:ED:D1:C5:75:E9:1D
            X509v3 Authority Key Identifier: 
                keyid:04:D0:EB:70:91:45:5E:42:1E:03:27:49:44:4D:4B:74:B3:35:5D:02

    Signature Algorithm: sha256WithRSAEncryption
         40:ed:1e:bd:f8:60:75:4d:59:ae:b2:0e:da:8d:c6:83:9c:8f:
         12:cf:ce:8a:97:b8:95:12:d8:b0:23:84:5f:9c:a3:8e:d4:43:
         81:bc:94:fb:d2:a3:10:98:e1:ad:f3:f2:ba:1a:8e:68:50:ff:
         3c:f8:34:9c:36:b7:3d:01:83:0c:e6:7e:55:ca:52:81:fb:e1:
         2f:e1:e6:94:cb:c1:7d:74:8e:77:4e:82:29:58:05:50:7c:a1:
         b9:d4:f5:2b:b9:23:80:ca:6f:42:a6:f2:37:3c:81:bc:25:84:
         e9:d5:82:d2:ad:26:8d:23:c9:9e:be:6a:cf:28:23:20:12:b5:
         bf:9f:3e:bf:11:92:ab:fa:f6:0d:b0:55:0a:8a:06:9d:c9:0c:
         5c:66:99:3f:23:bf:47:4d:c2:1e:f6:dd:26:34:af:57:e7:09:
         6e:bf:ad:07:be:2a:50:b8:fe:49:54:a7:fe:ba:1a:d9:8c:2b:
         e7:90:67:cb:4d:ed:8f:3f:c9:0b:0d:ec:01:ea:d6:e4:78:5c:
         15:ad:02:24:10:aa:9e:c6:42:28:12:dd:0b:6d:17:aa:16:1c:
         0f:79:ea:96:61:84:bb:d6:1d:46:35:99:60:a8:64:ae:96:db:
         e6:2b:3f:e6:71:3d:3d:bc:01:f4:ab:bd:84:08:d7:77:ed:45:
         6c:11:b7:dd
-----BEGIN CERTIFICATE-----
MIICzTCCAbWgAwIBAgIUPouYg+TqmRelZS7Irug/OM7w6JMwDQYJKoZIhvcNAQEL
BQAwIDEeMBwGA1UEAwwVSnNpZ24gQ29kZSBTaWduaW5nIENBMB4XDTIxMTAyNDIx
MTkyMVoXDTQxMTAxOTIxMTkyMVowNDEyMDAGA1UEAwwpSnNpZ24gQ29kZSBTaWdu
aW5nIFRlc3QgQ2VydGlmaWNhdGUgKFJTQSkwgZ8wDQYJKoZIhvcNAQEBBQADgY0A
MIGJAoGBAJowigorkeTTEoWk2okB89TftZgosnUDkbqodmJqzpRvpVgZJuBnkosi
mr379TqGVeMkYQGtf1jloH++xvdyb8xX2r0b+KWiggWwWzgmn0QgkQAEkcU9GmjW
Jned8CE+IvUWUMemF1OQCbA3UI/OXumjJXuoCHfnXtM1uJGPIxbtAgMBAAGjbzBt
MAkGA1UdEwQCMAAwCwYDVR0PBAQDAgeAMBMGA1UdJQQMMAoGCCsGAQUFBwMDMB0G
A1UdDgQWBBQp718cnGYKIwvUFGB1zO3RxXXpHTAfBgNVHSMEGDAWgBQE0OtwkUVe
Qh4DJ0lETUt0szVdAjANBgkqhkiG9w0BAQsFAAOCAQEAQO0evfhgdU1ZrrIO2o3G
g5yPEs/Oipe4lRLYsCOEX5yjjtRDgbyU+9KjEJjhrfPyuhqOaFD/PPg0nDa3PQGD
DOZ+VcpSgfvhL+HmlMvBfXSOd06CKVgFUHyhudT1K7kjgMpvQqbyNzyBvCWE6dWC
0q0mjSPJnr5qzygjIBK1v58+vxGSq/r2DbBVCooGnckMXGaZPyO/R03CHvbdJjSv
V+cJbr+tB74qULj+SVSn/roa2Ywr55Bny03tjz/JCw3sAerW5HhcFa0CJBCqnsZC
KBLdC20XqhYcD3nqlmGEu9YdRjWZYKhkrpbb5is/5nE9PbwB9Ku9hAjXd+1FbBG3
3Q==
-----END CERTIFICATE-----
