Certificate:
    Data:
        Version: 3 (0x2)
        Serial Number:
            24:03:af:25:d7:e0:4d:8d:45:e3:c8:19:51:60:ba:96:ae:85:68:bb
        Signature Algorithm: sha256WithRSAEncryption
        Issuer: CN = Jsign Code Signing Test Certificate 2025 (self-signed)
        Validity
            Not Before: Aug 17 07:11:12 2025 GMT
            Not After : Aug 17 07:11:12 2045 GMT
        Subject: CN = Jsign Code Signing Test Certificate 2025 (self-signed)
        Subject Public Key Info:
            Public Key Algorithm: rsaEncryption
                Public-Key: (2048 bit)
                Modulus:
                    00:a6:90:52:e5:90:ac:79:c7:ca:39:1d:87:05:9d:
                    a9:3f:96:d2:0f:6d:ea:f4:e7:42:65:38:cb:f5:e9:
                    83:9c:2c:17:53:51:32:1d:ae:8c:b8:fb:3d:0c:7e:
                    fa:5e:df:64:9c:77:bc:2d:49:27:5f:d1:33:a0:95:
                    14:16:2e:6b:32:f0:7c:38:e5:e3:f3:63:e2:78:25:
                    8a:df:a2:8c:e2:6d:5e:70:71:48:62:29:29:94:da:
                    39:1c:3d:69:87:0c:22:f1:d1:8b:16:45:aa:95:48:
                    7c:0d:08:ee:08:c4:07:f5:a4:23:a1:ea:f9:e3:ee:
                    d1:91:80:36:8a:e0:80:9c:7f:40:fe:48:84:13:f3:
                    29:29:af:fb:cd:dc:40:0f:79:e0:93:7c:12:37:72:
                    b8:cc:d5:b3:64:aa:3b:28:14:6c:a3:5a:8b:88:e5:
                    9a:2b:44:53:22:81:ff:6f:64:f6:9a:3e:f7:da:49:
                    dc:a5:10:7b:e0:47:96:2d:df:c8:41:4d:cd:47:4f:
                    f6:70:7a:15:4c:3e:f6:4a:38:f3:f0:b4:ab:ba:8a:
                    7a:b2:a4:9d:85:b7:ca:c6:70:0f:bd:16:31:de:34:
                    6b:fe:14:d5:c0:01:48:56:d5:bf:22:15:01:ae:1d:
                    c5:1a:1c:a3:9d:86:92:df:b1:d4:68:4e:0b:3b:4b:
                    b5:0f
                Exponent: 65537 (0x10001)
        X509v3 extensions:
            X509v3 Subject Key Identifier: 
                12:C4:8A:0E:6F:16:47:F1:B2:1F:CE:7B:2F:30:E6:27:28:31:34:93
            X509v3 Authority Key Identifier: 
                12:C4:8A:0E:6F:16:47:F1:B2:1F:CE:7B:2F:30:E6:27:28:31:34:93
            X509v3 Basic Constraints: critical
                CA:TRUE
    Signature Algorithm: sha256WithRSAEncryption
    Signature Value:
        36:e1:f9:21:1a:03:78:c6:04:78:69:e2:8c:01:d9:81:3b:7f:
        c9:eb:5a:f0:41:bb:3e:98:56:3f:a6:cd:eb:08:9a:39:98:e5:
        44:be:8e:f2:ab:d8:69:c0:8c:2b:59:ea:18:52:5f:c7:0d:a3:
        59:3f:db:b3:d9:ab:51:c9:9b:8e:5e:1a:ff:fc:5c:e0:99:fb:
        f7:c2:9e:be:0c:e5:95:ae:5c:fd:34:45:d9:20:84:cc:fa:19:
        b2:4d:07:61:88:59:79:9c:53:39:aa:c5:45:cb:8f:77:07:e8:
        12:91:27:2d:06:25:43:6e:e5:00:cf:8d:72:d9:6f:48:61:cc:
        1a:6d:f6:57:35:5e:a9:88:f7:83:11:fa:26:eb:c8:7f:67:e4:
        d6:bf:f8:ce:0a:86:2a:06:7d:3a:1f:1f:ea:e7:9c:19:81:bf:
        8d:a7:87:5e:88:5d:c7:d3:ad:52:fa:5e:e7:4d:58:e9:b3:62:
        41:30:78:ed:5c:2a:2c:c5:14:26:fa:48:06:84:4f:e2:a3:4f:
        4e:5b:f3:61:5d:df:a3:b5:8c:e5:9a:9a:de:93:e0:13:50:b3:
        52:6e:b2:c2:55:df:60:d6:85:f4:ab:a1:c1:d9:eb:30:85:d7:
        cb:00:e0:8a:7d:f3:65:73:6c:15:82:29:ce:de:b9:b2:9d:68:
        dd:6f:95:3e
-----BEGIN CERTIFICATE-----
MIIDYzCCAkugAwIBAgIUJAOvJdfgTY1F48gZUWC6lq6FaLswDQYJKoZIhvcNAQEL
BQAwQTE/MD0GA1UEAww2SnNpZ24gQ29kZSBTaWduaW5nIFRlc3QgQ2VydGlmaWNh
dGUgMjAyNSAoc2VsZi1zaWduZWQpMB4XDTI1MDgxNzA3MTExMloXDTQ1MDgxNzA3
MTExMlowQTE/MD0GA1UEAww2SnNpZ24gQ29kZSBTaWduaW5nIFRlc3QgQ2VydGlm
aWNhdGUgMjAyNSAoc2VsZi1zaWduZWQpMIIBIjANBgkqhkiG9w0BAQEFAAOCAQ8A
MIIBCgKCAQEAppBS5ZCsecfKOR2HBZ2pP5bSD23q9OdCZTjL9emDnCwXU1EyHa6M
uPs9DH76Xt9knHe8LUknX9EzoJUUFi5rMvB8OOXj82PieCWK36KM4m1ecHFIYikp
lNo5HD1phwwi8dGLFkWqlUh8DQjuCMQH9aQjoer54+7RkYA2iuCAnH9A/kiEE/Mp
Ka/7zdxAD3ngk3wSN3K4zNWzZKo7KBRso1qLiOWaK0RTIoH/b2T2mj732kncpRB7
4EeWLd/IQU3NR0/2cHoVTD72Sjjz8LSruop6sqSdhbfKxnAPvRYx3jRr/hTVwAFI
VtW/IhUBrh3FGhyjnYaS37HUaE4LO0u1DwIDAQABo1MwUTAdBgNVHQ4EFgQUEsSK
Dm8WR/GyH857LzDmJygxNJMwHwYDVR0jBBgwFoAUEsSKDm8WR/GyH857LzDmJygx
NJMwDwYDVR0TAQH/BAUwAwEB/zANBgkqhkiG9w0BAQsFAAOCAQEANuH5IRoDeMYE
eGnijAHZgTt/yeta8EG7PphWP6bN6wiaOZjlRL6O8qvYacCMK1nqGFJfxw2jWT/b
s9mrUcmbjl4a//xc4Jn798Kevgzlla5c/TRF2SCEzPoZsk0HYYhZeZxTOarFRcuP
dwfoEpEnLQYlQ27lAM+NctlvSGHMGm32VzVeqYj3gxH6JuvIf2fk1r/4zgqGKgZ9
Oh8f6uecGYG/jaeHXohdx9OtUvpe501Y6bNiQTB47VwqLMUUJvpIBoRP4qNPTlvz
YV3fo7WM5Zqa3pPgE1CzUm6ywlXfYNaF9KuhwdnrMIXXywDgin3zZXNsFYIpzt65
sp1o3W+VPg==
-----END CERTIFICATE-----
