Certificate:
    Data:
        Version: 3 (0x2)
        Serial Number:
            23:2a:e7:47:43:b0:ae:4d:a7:4b:ea:e1:53:87:64:4a:f6:ca:7a:04
        Signature Algorithm: sha256WithRSAEncryption
        Issuer: CN = Jsign Code Signing CA 2024
        Validity
            Not Before: May 10 13:08:20 2024 GMT
            Not After : May 10 13:08:20 2044 GMT
        Subject: CN = Jsign Code Signing Test Certificate 2024 (EC)
        Subject Public Key Info:
            Public Key Algorithm: id-ecPublicKey
                Public-Key: (384 bit)
                pub:
                    04:da:c7:47:c9:56:6b:3c:22:12:dd:77:11:e2:df:
                    4a:fc:b6:b8:39:ad:2d:2c:be:e6:4a:23:6a:ba:75:
                    7a:c5:c0:c2:2e:99:0b:11:a4:d4:4e:11:98:6c:ed:
                    7c:48:e7:8a:e1:ae:35:08:73:4a:d0:91:3f:ec:8c:
                    c7:85:bb:28:69:67:41:45:3d:56:c8:42:2e:b5:91:
                    3f:86:d4:fa:17:f5:a7:18:0a:40:a9:91:d6:4d:b1:
                    66:ad:6a:80:67:ea:41
                ASN1 OID: secp384r1
                NIST CURVE: P-384
        X509v3 extensions:
            X509v3 Basic Constraints: 
                CA:FALSE
            X509v3 Key Usage: 
                Digital Signature
            X509v3 Extended Key Usage: 
                Code Signing
            X509v3 Subject Key Identifier: 
                68:C9:9B:60:47:9C:18:38:E7:BB:81:2B:3F:EB:74:8C:FB:68:A5:A4
            X509v3 Authority Key Identifier: 
                E2:71:4A:A3:53:E9:58:2A:7B:94:44:3D:3B:AE:8A:01:D4:E5:04:FD
            Authority Information Access: 
                CA Issuers - URI:http://raw.githubusercontent.com/ebourg/jsign/master/jsign-core/src/test/resources/keystores/jsign-code-signing-ca.cer
    Signature Algorithm: sha256WithRSAEncryption
    Signature Value:
        14:75:90:b2:4e:3c:ce:1e:f7:1b:17:6f:47:36:1d:9f:eb:12:
        a2:67:25:c4:c8:bc:e6:26:b2:ae:fe:af:0d:f7:d2:a5:77:04:
        5d:e1:64:fb:b0:39:d2:f2:00:ae:9a:4c:9a:cc:e4:c0:d2:44:
        bd:ac:2e:a1:ac:c0:56:45:aa:8f:0b:32:fe:6e:2c:4e:72:dc:
        6c:80:cc:75:e1:43:ea:2c:2f:80:43:2c:31:cc:9b:6d:fe:89:
        ce:1b:34:65:ec:a9:18:08:a8:e0:82:1d:70:08:04:3b:e7:12:
        1f:20:92:d2:d2:b3:97:35:c4:f1:64:ba:4d:bd:dc:c1:89:3f:
        f1:6e:0c:eb:83:03:73:95:aa:20:9e:85:ec:b5:ab:73:e2:dc:
        47:82:c5:4b:1b:84:e8:6c:13:f8:5e:46:b7:79:0d:07:35:7b:
        11:3c:c5:26:84:cd:02:69:4c:ce:39:97:55:60:6d:89:bf:89:
        f3:54:47:d6:7c:1e:6b:ab:30:35:da:d4:85:fd:77:f1:52:27:
        c1:a6:ec:9e:bc:9e:4e:a3:cd:4a:4d:fe:0a:d7:b8:60:76:4d:
        25:d0:3f:d8:4c:7a:c5:50:fd:a0:0f:cb:d9:f8:81:ae:d1:db:
        55:f0:66:59:af:b5:49:04:0c:26:9e:5e:c5:37:c2:f5:11:92:
        85:63:a1:c6
-----BEGIN CERTIFICATE-----
MIIDSDCCAjCgAwIBAgIUIyrnR0Owrk2nS+rhU4dkSvbKegQwDQYJKoZIhvcNAQEL
BQAwJTEjMCEGA1UEAwwaSnNpZ24gQ29kZSBTaWduaW5nIENBIDIwMjQwHhcNMjQw
NTEwMTMwODIwWhcNNDQwNTEwMTMwODIwWjA4MTYwNAYDVQQDDC1Kc2lnbiBDb2Rl
IFNpZ25pbmcgVGVzdCBDZXJ0aWZpY2F0ZSAyMDI0IChFQykwdjAQBgcqhkjOPQIB
BgUrgQQAIgNiAATax0fJVms8IhLddxHi30r8trg5rS0svuZKI2q6dXrFwMIumQsR
pNROEZhs7XxI54rhrjUIc0rQkT/sjMeFuyhpZ0FFPVbIQi61kT+G1PoX9acYCkCp
kdZNsWataoBn6kGjggEJMIIBBTAJBgNVHRMEAjAAMAsGA1UdDwQEAwIHgDATBgNV
HSUEDDAKBggrBgEFBQcDAzAdBgNVHQ4EFgQUaMmbYEecGDjnu4ErP+t0jPtopaQw
HwYDVR0jBBgwFoAU4nFKo1PpWCp7lEQ9O66KAdTlBP0wgZUGCCsGAQUFBwEBBIGI
MIGFMIGCBggrBgEFBQcwAoZ2aHR0cDovL3Jhdy5naXRodWJ1c2VyY29udGVudC5j
b20vZWJvdXJnL2pzaWduL21hc3Rlci9qc2lnbi1jb3JlL3NyYy90ZXN0L3Jlc291
cmNlcy9rZXlzdG9yZXMvanNpZ24tY29kZS1zaWduaW5nLWNhLmNlcjANBgkqhkiG
9w0BAQsFAAOCAQEAFHWQsk48zh73GxdvRzYdn+sSomclxMi85iayrv6vDffSpXcE
XeFk+7A50vIArppMmszkwNJEvawuoazAVkWqjwsy/m4sTnLcbIDMdeFD6iwvgEMs
Mcybbf6Jzhs0ZeypGAio4IIdcAgEO+cSHyCS0tKzlzXE8WS6Tb3cwYk/8W4M64MD
c5WqIJ6F7LWrc+LcR4LFSxuE6GwT+F5Gt3kNBzV7ETzFJoTNAmlMzjmXVWBtib+J
81RH1nwea6swNdrUhf138VInwabsnryeTqPNSk3+Cte4YHZNJdA/2Ex6xVD9oA/L
2fiBrtHbVfBmWa+1SQQMJp5exTfC9RGShWOhxg==
-----END CERTIFICATE-----
